
.//Obj/Release_APT32F102ab.elf:     file format elf32-csky-little


Disassembly of section .text:

00000000 <vector_table>:
       0:	0000010c 	.long	0x0000010c
       4:	00003b3e 	.long	0x00003b3e
       8:	00003b2e 	.long	0x00003b2e
       c:	00000184 	.long	0x00000184
      10:	00003b36 	.long	0x00003b36
      14:	00003af4 	.long	0x00003af4
      18:	00000184 	.long	0x00000184
      1c:	00003b26 	.long	0x00003b26
      20:	00003b1e 	.long	0x00003b1e
      24:	00000184 	.long	0x00000184
      28:	00000184 	.long	0x00000184
      2c:	00000184 	.long	0x00000184
      30:	00000184 	.long	0x00000184
      34:	00000184 	.long	0x00000184
      38:	00000184 	.long	0x00000184
      3c:	00000184 	.long	0x00000184
      40:	00003b16 	.long	0x00003b16
      44:	00003b0e 	.long	0x00003b0e
      48:	00003b06 	.long	0x00003b06
      4c:	00003afe 	.long	0x00003afe
      50:	00000184 	.long	0x00000184
      54:	00000184 	.long	0x00000184
      58:	00000184 	.long	0x00000184
      5c:	00000184 	.long	0x00000184
      60:	00000184 	.long	0x00000184
      64:	00000184 	.long	0x00000184
      68:	00000184 	.long	0x00000184
      6c:	00000184 	.long	0x00000184
      70:	00000184 	.long	0x00000184
      74:	00000184 	.long	0x00000184
      78:	00000184 	.long	0x00000184
      7c:	00003af6 	.long	0x00003af6
      80:	00005ca8 	.long	0x00005ca8
      84:	00003210 	.long	0x00003210
      88:	00003308 	.long	0x00003308
      8c:	00003370 	.long	0x00003370
      90:	000033d8 	.long	0x000033d8
      94:	00000184 	.long	0x00000184
      98:	00003580 	.long	0x00003580
      9c:	000038c4 	.long	0x000038c4
      a0:	000038f4 	.long	0x000038f4
      a4:	000035b4 	.long	0x000035b4
      a8:	00000184 	.long	0x00000184
      ac:	00000184 	.long	0x00000184
      b0:	00003634 	.long	0x00003634
      b4:	000036a4 	.long	0x000036a4
      b8:	000036e0 	.long	0x000036e0
      bc:	0000371c 	.long	0x0000371c
      c0:	00000184 	.long	0x00000184
      c4:	00003b4e 	.long	0x00003b4e
      c8:	00000184 	.long	0x00000184
      cc:	00003758 	.long	0x00003758
      d0:	00003840 	.long	0x00003840
      d4:	00003924 	.long	0x00003924
      d8:	0000396c 	.long	0x0000396c
      dc:	000039c8 	.long	0x000039c8
      e0:	00003b46 	.long	0x00003b46
      e4:	00004f50 	.long	0x00004f50
      e8:	00003a28 	.long	0x00003a28
      ec:	00000184 	.long	0x00000184
      f0:	00003a5c 	.long	0x00003a5c
      f4:	00003aac 	.long	0x00003aac
      f8:	00000184 	.long	0x00000184
      fc:	00000184 	.long	0x00000184
     100:	55aa0005 	.long	0x55aa0005
	...

0000010c <__start>:
//  .long __start
__start:

	
  //initialize all registers
  movi r0, 0
     10c:	3000      	movi      	r0, 0
  movi r1, 0
     10e:	3100      	movi      	r1, 0
  movi r2, 0
     110:	3200      	movi      	r2, 0
  movi r3, 0
     112:	3300      	movi      	r3, 0
  movi r4, 0
     114:	3400      	movi      	r4, 0
  movi r5, 0
     116:	3500      	movi      	r5, 0
  movi r6, 0
     118:	3600      	movi      	r6, 0
  movi r7, 0
     11a:	3700      	movi      	r7, 0
  //movi r13, 0
  //movi r14, 0
  //movi r15, 0

//set VBR
  lrw r2, vector_table
     11c:	105b      	lrw      	r2, 0x0	// 188 <DummyHandler+0x4>
  mtcr r2, cr<1,0>
     11e:	c0026421 	mtcr      	r2, cr<1, 0>

//enable EE bit of psr
  mfcr r2, cr<0,0>
     122:	c0006022 	mfcr      	r2, cr<0, 0>
  bseti r2, r2, 8
     126:	3aa8      	bseti      	r2, 8
  mtcr r2, cr<0,0>
     128:	c0026420 	mtcr      	r2, cr<0, 0>
//  st.w    r2, (r1,0x4)
//  movi    r2, 0x1
//  st.w    r2, (r1,0x0)

//disable power peak 
  lrw     r1, 0xe000ef90
     12c:	1038      	lrw      	r1, 0xe000ef90	// 18c <DummyHandler+0x8>
  movi    r2, 0x0
     12e:	3200      	movi      	r2, 0
  st.w    r2, (r1, 0x0)
     130:	b140      	st.w      	r2, (r1, 0x0)



//initialize kernel stack
  lrw  r7, __kernel_stack
     132:	10f8      	lrw      	r7, 0x20000ff8	// 190 <DummyHandler+0xc>
  mov r14,r7
     134:	6f9f      	mov      	r14, r7
  subi r6,r7,0x4
     136:	5fcf      	subi      	r6, r7, 4

  //lrw  r3, 0x40
  lrw  r3, 0x04
     138:	3304      	movi      	r3, 4
	
  subu r4, r7, r3
     13a:	5f8d      	subu      	r4, r7, r3
  lrw  r5, 0x0
     13c:	3500      	movi      	r5, 0

0000013e <INIT_KERLE_STACK>:
INIT_KERLE_STACK:
  addi r4, 0x4
     13e:	2403      	addi      	r4, 4
  st.w r5, (r4)
     140:	b4a0      	st.w      	r5, (r4, 0x0)
  //cmphs r7, r4
  cmphs r6, r4
     142:	6518      	cmphs      	r6, r4
  bt  INIT_KERLE_STACK
     144:	0bfd      	bt      	0x13e	// 13e <INIT_KERLE_STACK>

00000146 <__to_main>:
        
__to_main:
  lrw r0,__main
     146:	1014      	lrw      	r0, 0x204c	// 194 <DummyHandler+0x10>
  jsr r0
     148:	7bc1      	jsr      	r0
  mov r0, r0
     14a:	6c03      	mov      	r0, r0
  mov r0, r0
     14c:	6c03      	mov      	r0, r0


  
  lrw r15, __exit
     14e:	ea8f0013 	lrw      	r15, 0x160	// 198 <DummyHandler+0x14>
  lrw r0,main
     152:	1013      	lrw      	r0, 0x2f58	// 19c <DummyHandler+0x18>
  jmp r0
     154:	7800      	jmp      	r0
  mov r0, r0
     156:	6c03      	mov      	r0, r0
  mov r0, r0
     158:	6c03      	mov      	r0, r0
  mov r0, r0
     15a:	6c03      	mov      	r0, r0
  mov r0, r0
     15c:	6c03      	mov      	r0, r0
  mov r0, r0
     15e:	6c03      	mov      	r0, r0

00000160 <__exit>:

.export __exit
__exit:

  lrw r4, 0x20003000
     160:	1090      	lrw      	r4, 0x20003000	// 1a0 <DummyHandler+0x1c>
  //lrw r5, 0x0
  mov r5, r0
     162:	6d43      	mov      	r5, r0
  st.w r5, (r4)
     164:	b4a0      	st.w      	r5, (r4, 0x0)

  mfcr r1, cr<0,0>
     166:	c0006021 	mfcr      	r1, cr<0, 0>
  lrw  r1, 0xFFFF
     16a:	102f      	lrw      	r1, 0xffff	// 1a4 <DummyHandler+0x20>
  mtcr r1, cr<11,0>
     16c:	c001642b 	mtcr      	r1, cr<11, 0>
  lrw     r1, 0xFFF
     170:	102e      	lrw      	r1, 0xfff	// 1a8 <DummyHandler+0x24>
  movi    r0, 0x0
     172:	3000      	movi      	r0, 0
  st      r1, (r0)
     174:	b020      	st.w      	r1, (r0, 0x0)

00000176 <__fail>:

.export __fail
__fail:
  lrw  r1, 0xEEEE
     176:	102e      	lrw      	r1, 0xeeee	// 1ac <DummyHandler+0x28>
  mtcr r1, cr<11,0>
     178:	c001642b 	mtcr      	r1, cr<11, 0>
  lrw     r1, 0xEEE
     17c:	102d      	lrw      	r1, 0xeee	// 1b0 <DummyHandler+0x2c>
  movi    r0, 0x0
     17e:	3000      	movi      	r0, 0
  st      r1, (r0)
     180:	b020      	st.w      	r1, (r0, 0x0)

00000182 <__dummy>:

__dummy:
  br      __fail
     182:	07fa      	br      	0x176	// 176 <__fail>

00000184 <DummyHandler>:

.export DummyHandler
DummyHandler:
  br      __fail
     184:	07f9      	br      	0x176	// 176 <__fail>
     186:	0000      	.short	0x0000
     188:	00000000 	.long	0x00000000
     18c:	e000ef90 	.long	0xe000ef90
     190:	20000ff8 	.long	0x20000ff8
     194:	0000204c 	.long	0x0000204c
     198:	00000160 	.long	0x00000160
     19c:	00002f58 	.long	0x00002f58
     1a0:	20003000 	.long	0x20003000
     1a4:	0000ffff 	.long	0x0000ffff
     1a8:	00000fff 	.long	0x00000fff
     1ac:	0000eeee 	.long	0x0000eeee
     1b0:	00000eee 	.long	0x00000eee

000001b4 <__GI_pow>:
     1b4:	14d4      	push      	r4-r7, r15
     1b6:	142d      	subi      	r14, r14, 52
     1b8:	b860      	st.w      	r3, (r14, 0x0)
     1ba:	4361      	lsli      	r3, r3, 1
     1bc:	4b81      	lsri      	r4, r3, 1
     1be:	b842      	st.w      	r2, (r14, 0x8)
     1c0:	6c90      	or      	r2, r4
     1c2:	3a40      	cmpnei      	r2, 0
     1c4:	6dc3      	mov      	r7, r0
     1c6:	6d87      	mov      	r6, r1
     1c8:	0803      	bt      	0x1ce	// 1ce <__GI_pow+0x1a>
     1ca:	e8000462 	br      	0xa8e	// a8e <__GI_pow+0x8da>
     1ce:	41a1      	lsli      	r5, r1, 1
     1d0:	4da1      	lsri      	r5, r5, 1
     1d2:	0055      	lrw      	r2, 0x7ff00000	// 578 <__GI_pow+0x3c4>
     1d4:	6549      	cmplt      	r2, r5
     1d6:	080c      	bt      	0x1ee	// 1ee <__GI_pow+0x3a>
     1d8:	6496      	cmpne      	r5, r2
     1da:	0803      	bt      	0x1e0	// 1e0 <__GI_pow+0x2c>
     1dc:	3840      	cmpnei      	r0, 0
     1de:	0808      	bt      	0x1ee	// 1ee <__GI_pow+0x3a>
     1e0:	6509      	cmplt      	r2, r4
     1e2:	0806      	bt      	0x1ee	// 1ee <__GI_pow+0x3a>
     1e4:	6492      	cmpne      	r4, r2
     1e6:	080e      	bt      	0x202	// 202 <__GI_pow+0x4e>
     1e8:	9802      	ld.w      	r0, (r14, 0x8)
     1ea:	3840      	cmpnei      	r0, 0
     1ec:	0c0b      	bf      	0x202	// 202 <__GI_pow+0x4e>
     1ee:	9842      	ld.w      	r2, (r14, 0x8)
     1f0:	9860      	ld.w      	r3, (r14, 0x0)
     1f2:	6c1f      	mov      	r0, r7
     1f4:	6c5b      	mov      	r1, r6
     1f6:	e0000913 	bsr      	0x141c	// 141c <__adddf3>
     1fa:	6d03      	mov      	r4, r0
     1fc:	6c13      	mov      	r0, r4
     1fe:	140d      	addi      	r14, r14, 52
     200:	1494      	pop      	r4-r7, r15
     202:	3edf      	btsti      	r6, 31
     204:	0c51      	bf      	0x2a6	// 2a6 <__GI_pow+0xf2>
     206:	0121      	lrw      	r1, 0x43400000	// 57c <__GI_pow+0x3c8>
     208:	2900      	subi      	r1, 1
     20a:	6505      	cmplt      	r1, r4
     20c:	084b      	bt      	0x2a2	// 2a2 <__GI_pow+0xee>
     20e:	0162      	lrw      	r3, 0x3ff00000	// 580 <__GI_pow+0x3cc>
     210:	2b00      	subi      	r3, 1
     212:	650d      	cmplt      	r3, r4
     214:	0c49      	bf      	0x2a6	// 2a6 <__GI_pow+0xf2>
     216:	5454      	asri      	r2, r4, 20
     218:	0104      	lrw      	r0, 0xfffffc01	// 584 <__GI_pow+0x3d0>
     21a:	6080      	addu      	r2, r0
     21c:	3a34      	cmplti      	r2, 21
     21e:	0821      	bt      	0x260	// 260 <__GI_pow+0xac>
     220:	3334      	movi      	r3, 52
     222:	60ca      	subu      	r3, r2
     224:	9842      	ld.w      	r2, (r14, 0x8)
     226:	708d      	lsr      	r2, r3
     228:	6c4b      	mov      	r1, r2
     22a:	704c      	lsl      	r1, r3
     22c:	9802      	ld.w      	r0, (r14, 0x8)
     22e:	6442      	cmpne      	r0, r1
     230:	083b      	bt      	0x2a6	// 2a6 <__GI_pow+0xf2>
     232:	3101      	movi      	r1, 1
     234:	6884      	and      	r2, r1
     236:	3302      	movi      	r3, 2
     238:	5b49      	subu      	r2, r3, r2
     23a:	9802      	ld.w      	r0, (r14, 0x8)
     23c:	3840      	cmpnei      	r0, 0
     23e:	b841      	st.w      	r2, (r14, 0x4)
     240:	0862      	bt      	0x304	// 304 <__GI_pow+0x150>
     242:	0151      	lrw      	r2, 0x7ff00000	// 578 <__GI_pow+0x3c4>
     244:	6492      	cmpne      	r4, r2
     246:	081f      	bt      	0x284	// 284 <__GI_pow+0xd0>
     248:	012f      	lrw      	r1, 0xc0100000	// 588 <__GI_pow+0x3d4>
     24a:	6054      	addu      	r1, r5
     24c:	6dc4      	or      	r7, r1
     24e:	3f40      	cmpnei      	r7, 0
     250:	082d      	bt      	0x2aa	// 2aa <__GI_pow+0xf6>
     252:	9860      	ld.w      	r3, (r14, 0x0)
     254:	3200      	movi      	r2, 0
     256:	6c4f      	mov      	r1, r3
     258:	3000      	movi      	r0, 0
     25a:	e00008f9 	bsr      	0x144c	// 144c <__subdf3>
     25e:	07ce      	br      	0x1fa	// 1fa <__GI_pow+0x46>
     260:	9822      	ld.w      	r1, (r14, 0x8)
     262:	3940      	cmpnei      	r1, 0
     264:	084e      	bt      	0x300	// 300 <__GI_pow+0x14c>
     266:	3114      	movi      	r1, 20
     268:	604a      	subu      	r1, r2
     26a:	6c93      	mov      	r2, r4
     26c:	7086      	asr      	r2, r1
     26e:	6c0b      	mov      	r0, r2
     270:	7004      	lsl      	r0, r1
     272:	6412      	cmpne      	r4, r0
     274:	0c03      	bf      	0x27a	// 27a <__GI_pow+0xc6>
     276:	e8000471 	br      	0xb58	// b58 <__GI_pow+0x9a4>
     27a:	3101      	movi      	r1, 1
     27c:	6884      	and      	r2, r1
     27e:	3002      	movi      	r0, 2
     280:	5869      	subu      	r3, r0, r2
     282:	b861      	st.w      	r3, (r14, 0x4)
     284:	0220      	lrw      	r1, 0x3ff00000	// 580 <__GI_pow+0x3cc>
     286:	6452      	cmpne      	r4, r1
     288:	0825      	bt      	0x2d2	// 2d2 <__GI_pow+0x11e>
     28a:	9880      	ld.w      	r4, (r14, 0x0)
     28c:	3cdf      	btsti      	r4, 31
     28e:	0803      	bt      	0x294	// 294 <__GI_pow+0xe0>
     290:	e8000407 	br      	0xa9e	// a9e <__GI_pow+0x8ea>
     294:	6c9f      	mov      	r2, r7
     296:	6cdb      	mov      	r3, r6
     298:	3000      	movi      	r0, 0
     29a:	0225      	lrw      	r1, 0x3ff00000	// 580 <__GI_pow+0x3cc>
     29c:	e0000a0e 	bsr      	0x16b8	// 16b8 <__divdf3>
     2a0:	07ad      	br      	0x1fa	// 1fa <__GI_pow+0x46>
     2a2:	3202      	movi      	r2, 2
     2a4:	07cb      	br      	0x23a	// 23a <__GI_pow+0x86>
     2a6:	3200      	movi      	r2, 0
     2a8:	07c9      	br      	0x23a	// 23a <__GI_pow+0x86>
     2aa:	0269      	lrw      	r3, 0x3ff00000	// 580 <__GI_pow+0x3cc>
     2ac:	2b00      	subi      	r3, 1
     2ae:	654d      	cmplt      	r3, r5
     2b0:	9800      	ld.w      	r0, (r14, 0x0)
     2b2:	0c08      	bf      	0x2c2	// 2c2 <__GI_pow+0x10e>
     2b4:	38df      	btsti      	r0, 31
     2b6:	0803      	bt      	0x2bc	// 2bc <__GI_pow+0x108>
     2b8:	e80003ef 	br      	0xa96	// a96 <__GI_pow+0x8e2>
     2bc:	3400      	movi      	r4, 0
     2be:	3100      	movi      	r1, 0
     2c0:	079e      	br      	0x1fc	// 1fc <__GI_pow+0x48>
     2c2:	38df      	btsti      	r0, 31
     2c4:	0ffc      	bf      	0x2bc	// 2bc <__GI_pow+0x108>
     2c6:	3400      	movi      	r4, 0
     2c8:	6c43      	mov      	r1, r0
     2ca:	3280      	movi      	r2, 128
     2cc:	4278      	lsli      	r3, r2, 24
     2ce:	604c      	addu      	r1, r3
     2d0:	0796      	br      	0x1fc	// 1fc <__GI_pow+0x48>
     2d2:	3380      	movi      	r3, 128
     2d4:	4317      	lsli      	r0, r3, 23
     2d6:	9840      	ld.w      	r2, (r14, 0x0)
     2d8:	640a      	cmpne      	r2, r0
     2da:	0808      	bt      	0x2ea	// 2ea <__GI_pow+0x136>
     2dc:	6c9f      	mov      	r2, r7
     2de:	6cdb      	mov      	r3, r6
     2e0:	6c1f      	mov      	r0, r7
     2e2:	6c5b      	mov      	r1, r6
     2e4:	e00008d0 	bsr      	0x1484	// 1484 <__muldf3>
     2e8:	0789      	br      	0x1fa	// 1fa <__GI_pow+0x46>
     2ea:	0276      	lrw      	r3, 0x3fe00000	// 58c <__GI_pow+0x3d8>
     2ec:	9820      	ld.w      	r1, (r14, 0x0)
     2ee:	64c6      	cmpne      	r1, r3
     2f0:	080a      	bt      	0x304	// 304 <__GI_pow+0x150>
     2f2:	3edf      	btsti      	r6, 31
     2f4:	0808      	bt      	0x304	// 304 <__GI_pow+0x150>
     2f6:	6c1f      	mov      	r0, r7
     2f8:	6c5b      	mov      	r1, r6
     2fa:	e0000445 	bsr      	0xb84	// b84 <__GI_sqrt>
     2fe:	077e      	br      	0x1fa	// 1fa <__GI_pow+0x46>
     300:	3300      	movi      	r3, 0
     302:	b861      	st.w      	r3, (r14, 0x4)
     304:	6c1f      	mov      	r0, r7
     306:	6c5b      	mov      	r1, r6
     308:	b883      	st.w      	r4, (r14, 0xc)
     30a:	e000042a 	bsr      	0xb5e	// b5e <__GI_fabs>
     30e:	3f40      	cmpnei      	r7, 0
     310:	6d03      	mov      	r4, r0
     312:	9863      	ld.w      	r3, (r14, 0xc)
     314:	0826      	bt      	0x360	// 360 <__GI_pow+0x1ac>
     316:	3d40      	cmpnei      	r5, 0
     318:	0c05      	bf      	0x322	// 322 <__GI_pow+0x16e>
     31a:	4642      	lsli      	r2, r6, 2
     31c:	0302      	lrw      	r0, 0xffc00000	// 590 <__GI_pow+0x3dc>
     31e:	640a      	cmpne      	r2, r0
     320:	0820      	bt      	0x360	// 360 <__GI_pow+0x1ac>
     322:	9840      	ld.w      	r2, (r14, 0x0)
     324:	3adf      	btsti      	r2, 31
     326:	0c08      	bf      	0x336	// 336 <__GI_pow+0x182>
     328:	6c93      	mov      	r2, r4
     32a:	6cc7      	mov      	r3, r1
     32c:	3000      	movi      	r0, 0
     32e:	032a      	lrw      	r1, 0x3ff00000	// 580 <__GI_pow+0x3cc>
     330:	e00009c4 	bsr      	0x16b8	// 16b8 <__divdf3>
     334:	6d03      	mov      	r4, r0
     336:	3edf      	btsti      	r6, 31
     338:	0f62      	bf      	0x1fc	// 1fc <__GI_pow+0x48>
     33a:	036b      	lrw      	r3, 0xc0100000	// 588 <__GI_pow+0x3d4>
     33c:	614c      	addu      	r5, r3
     33e:	9801      	ld.w      	r0, (r14, 0x4)
     340:	6d40      	or      	r5, r0
     342:	3d40      	cmpnei      	r5, 0
     344:	080a      	bt      	0x358	// 358 <__GI_pow+0x1a4>
     346:	6c93      	mov      	r2, r4
     348:	6cc7      	mov      	r3, r1
     34a:	6c0b      	mov      	r0, r2
     34c:	6c4f      	mov      	r1, r3
     34e:	e000087f 	bsr      	0x144c	// 144c <__subdf3>
     352:	6c83      	mov      	r2, r0
     354:	6cc7      	mov      	r3, r1
     356:	07a3      	br      	0x29c	// 29c <__GI_pow+0xe8>
     358:	9841      	ld.w      	r2, (r14, 0x4)
     35a:	3a41      	cmpnei      	r2, 1
     35c:	0b50      	bt      	0x1fc	// 1fc <__GI_pow+0x48>
     35e:	07b6      	br      	0x2ca	// 2ca <__GI_pow+0x116>
     360:	4e5f      	lsri      	r2, r6, 31
     362:	2a00      	subi      	r2, 1
     364:	b847      	st.w      	r2, (r14, 0x1c)
     366:	9807      	ld.w      	r0, (r14, 0x1c)
     368:	9841      	ld.w      	r2, (r14, 0x4)
     36a:	6c80      	or      	r2, r0
     36c:	3a40      	cmpnei      	r2, 0
     36e:	0804      	bt      	0x376	// 376 <__GI_pow+0x1c2>
     370:	6c9f      	mov      	r2, r7
     372:	6cdb      	mov      	r3, r6
     374:	07eb      	br      	0x34a	// 34a <__GI_pow+0x196>
     376:	0357      	lrw      	r2, 0x41e00000	// 594 <__GI_pow+0x3e0>
     378:	64c9      	cmplt      	r2, r3
     37a:	0cbf      	bf      	0x4f8	// 4f8 <__GI_pow+0x344>
     37c:	0358      	lrw      	r2, 0x43f00000	// 598 <__GI_pow+0x3e4>
     37e:	64c9      	cmplt      	r2, r3
     380:	037f      	lrw      	r3, 0x3ff00000	// 580 <__GI_pow+0x3cc>
     382:	0c0c      	bf      	0x39a	// 39a <__GI_pow+0x1e6>
     384:	2b00      	subi      	r3, 1
     386:	654d      	cmplt      	r3, r5
     388:	080f      	bt      	0x3a6	// 3a6 <__GI_pow+0x1f2>
     38a:	9820      	ld.w      	r1, (r14, 0x0)
     38c:	39df      	btsti      	r1, 31
     38e:	0f97      	bf      	0x2bc	// 2bc <__GI_pow+0x108>
     390:	035c      	lrw      	r2, 0x8800759c	// 59c <__GI_pow+0x3e8>
     392:	037b      	lrw      	r3, 0x7e37e43c	// 5a0 <__GI_pow+0x3ec>
     394:	6c0b      	mov      	r0, r2
     396:	6c4f      	mov      	r1, r3
     398:	07a6      	br      	0x2e4	// 2e4 <__GI_pow+0x130>
     39a:	2b01      	subi      	r3, 2
     39c:	654d      	cmplt      	r3, r5
     39e:	0ff6      	bf      	0x38a	// 38a <__GI_pow+0x1d6>
     3a0:	1318      	lrw      	r0, 0x3ff00000	// 580 <__GI_pow+0x3cc>
     3a2:	6541      	cmplt      	r0, r5
     3a4:	0c05      	bf      	0x3ae	// 3ae <__GI_pow+0x1fa>
     3a6:	9800      	ld.w      	r0, (r14, 0x0)
     3a8:	3820      	cmplti      	r0, 1
     3aa:	0ff3      	bf      	0x390	// 390 <__GI_pow+0x1dc>
     3ac:	0788      	br      	0x2bc	// 2bc <__GI_pow+0x108>
     3ae:	3200      	movi      	r2, 0
     3b0:	1374      	lrw      	r3, 0x3ff00000	// 580 <__GI_pow+0x3cc>
     3b2:	6c1f      	mov      	r0, r7
     3b4:	6c5b      	mov      	r1, r6
     3b6:	36c0      	movi      	r6, 192
     3b8:	e000084a 	bsr      	0x144c	// 144c <__subdf3>
     3bc:	4657      	lsli      	r2, r6, 23
     3be:	137a      	lrw      	r3, 0x3ff71547	// 5a4 <__GI_pow+0x3f0>
     3c0:	6d43      	mov      	r5, r0
     3c2:	6d07      	mov      	r4, r1
     3c4:	e0000860 	bsr      	0x1484	// 1484 <__muldf3>
     3c8:	6dc3      	mov      	r7, r0
     3ca:	6d87      	mov      	r6, r1
     3cc:	1357      	lrw      	r2, 0xf85ddf44	// 5a8 <__GI_pow+0x3f4>
     3ce:	1378      	lrw      	r3, 0x3e54ae0b	// 5ac <__GI_pow+0x3f8>
     3d0:	6c17      	mov      	r0, r5
     3d2:	6c53      	mov      	r1, r4
     3d4:	e0000858 	bsr      	0x1484	// 1484 <__muldf3>
     3d8:	b803      	st.w      	r0, (r14, 0xc)
     3da:	b824      	st.w      	r1, (r14, 0x10)
     3dc:	3200      	movi      	r2, 0
     3de:	1375      	lrw      	r3, 0x3fd00000	// 5b0 <__GI_pow+0x3fc>
     3e0:	6c17      	mov      	r0, r5
     3e2:	6c53      	mov      	r1, r4
     3e4:	e0000850 	bsr      	0x1484	// 1484 <__muldf3>
     3e8:	6c83      	mov      	r2, r0
     3ea:	6cc7      	mov      	r3, r1
     3ec:	1312      	lrw      	r0, 0x55555555	// 5b4 <__GI_pow+0x400>
     3ee:	1333      	lrw      	r1, 0x3fd55555	// 5b8 <__GI_pow+0x404>
     3f0:	e000082e 	bsr      	0x144c	// 144c <__subdf3>
     3f4:	6c97      	mov      	r2, r5
     3f6:	6cd3      	mov      	r3, r4
     3f8:	e0000846 	bsr      	0x1484	// 1484 <__muldf3>
     3fc:	6c83      	mov      	r2, r0
     3fe:	6cc7      	mov      	r3, r1
     400:	3000      	movi      	r0, 0
     402:	1323      	lrw      	r1, 0x3fe00000	// 58c <__GI_pow+0x3d8>
     404:	e0000824 	bsr      	0x144c	// 144c <__subdf3>
     408:	b805      	st.w      	r0, (r14, 0x14)
     40a:	6c97      	mov      	r2, r5
     40c:	6cd3      	mov      	r3, r4
     40e:	b826      	st.w      	r1, (r14, 0x18)
     410:	6c17      	mov      	r0, r5
     412:	6c53      	mov      	r1, r4
     414:	e0000838 	bsr      	0x1484	// 1484 <__muldf3>
     418:	6c83      	mov      	r2, r0
     41a:	6cc7      	mov      	r3, r1
     41c:	9805      	ld.w      	r0, (r14, 0x14)
     41e:	9826      	ld.w      	r1, (r14, 0x18)
     420:	e0000832 	bsr      	0x1484	// 1484 <__muldf3>
     424:	1346      	lrw      	r2, 0x652b82fe	// 5bc <__GI_pow+0x408>
     426:	1360      	lrw      	r3, 0x3ff71547	// 5a4 <__GI_pow+0x3f0>
     428:	e000082e 	bsr      	0x1484	// 1484 <__muldf3>
     42c:	6c83      	mov      	r2, r0
     42e:	6cc7      	mov      	r3, r1
     430:	9803      	ld.w      	r0, (r14, 0xc)
     432:	9824      	ld.w      	r1, (r14, 0x10)
     434:	e000080c 	bsr      	0x144c	// 144c <__subdf3>
     438:	6c83      	mov      	r2, r0
     43a:	6cc7      	mov      	r3, r1
     43c:	6d43      	mov      	r5, r0
     43e:	6d07      	mov      	r4, r1
     440:	6c1f      	mov      	r0, r7
     442:	6c5b      	mov      	r1, r6
     444:	e00007ec 	bsr      	0x141c	// 141c <__adddf3>
     448:	6c9f      	mov      	r2, r7
     44a:	6cdb      	mov      	r3, r6
     44c:	3000      	movi      	r0, 0
     44e:	b823      	st.w      	r1, (r14, 0xc)
     450:	e00007fe 	bsr      	0x144c	// 144c <__subdf3>
     454:	6c83      	mov      	r2, r0
     456:	6cc7      	mov      	r3, r1
     458:	6c17      	mov      	r0, r5
     45a:	6c53      	mov      	r1, r4
     45c:	e00007f8 	bsr      	0x144c	// 144c <__subdf3>
     460:	6d07      	mov      	r4, r1
     462:	9821      	ld.w      	r1, (r14, 0x4)
     464:	2900      	subi      	r1, 1
     466:	9847      	ld.w      	r2, (r14, 0x1c)
     468:	6c48      	or      	r1, r2
     46a:	3940      	cmpnei      	r1, 0
     46c:	6d43      	mov      	r5, r0
     46e:	0c02      	bf      	0x472	// 472 <__GI_pow+0x2be>
     470:	05f0      	br      	0x850	// 850 <__GI_pow+0x69c>
     472:	1274      	lrw      	r3, 0xbff00000	// 5c0 <__GI_pow+0x40c>
     474:	b861      	st.w      	r3, (r14, 0x4)
     476:	9860      	ld.w      	r3, (r14, 0x0)
     478:	3200      	movi      	r2, 0
     47a:	9802      	ld.w      	r0, (r14, 0x8)
     47c:	6c4f      	mov      	r1, r3
     47e:	e00007e7 	bsr      	0x144c	// 144c <__subdf3>
     482:	9863      	ld.w      	r3, (r14, 0xc)
     484:	3200      	movi      	r2, 0
     486:	e00007ff 	bsr      	0x1484	// 1484 <__muldf3>
     48a:	6dc3      	mov      	r7, r0
     48c:	6d87      	mov      	r6, r1
     48e:	9842      	ld.w      	r2, (r14, 0x8)
     490:	9860      	ld.w      	r3, (r14, 0x0)
     492:	6c17      	mov      	r0, r5
     494:	6c53      	mov      	r1, r4
     496:	e00007f7 	bsr      	0x1484	// 1484 <__muldf3>
     49a:	6c83      	mov      	r2, r0
     49c:	6cc7      	mov      	r3, r1
     49e:	6c1f      	mov      	r0, r7
     4a0:	6c5b      	mov      	r1, r6
     4a2:	e00007bd 	bsr      	0x141c	// 141c <__adddf3>
     4a6:	6dc3      	mov      	r7, r0
     4a8:	9860      	ld.w      	r3, (r14, 0x0)
     4aa:	6d87      	mov      	r6, r1
     4ac:	3200      	movi      	r2, 0
     4ae:	9823      	ld.w      	r1, (r14, 0xc)
     4b0:	3000      	movi      	r0, 0
     4b2:	e00007e9 	bsr      	0x1484	// 1484 <__muldf3>
     4b6:	b802      	st.w      	r0, (r14, 0x8)
     4b8:	b803      	st.w      	r0, (r14, 0xc)
     4ba:	b824      	st.w      	r1, (r14, 0x10)
     4bc:	6c83      	mov      	r2, r0
     4be:	6cc7      	mov      	r3, r1
     4c0:	6d47      	mov      	r5, r1
     4c2:	6c1f      	mov      	r0, r7
     4c4:	6c5b      	mov      	r1, r6
     4c6:	e00007ab 	bsr      	0x141c	// 141c <__adddf3>
     4ca:	6d07      	mov      	r4, r1
     4cc:	113e      	lrw      	r1, 0x40900000	// 5c4 <__GI_pow+0x410>
     4ce:	2900      	subi      	r1, 1
     4d0:	6505      	cmplt      	r1, r4
     4d2:	b800      	st.w      	r0, (r14, 0x0)
     4d4:	0803      	bt      	0x4da	// 4da <__GI_pow+0x326>
     4d6:	e80002b3 	br      	0xa3c	// a3c <__GI_pow+0x888>
     4da:	117c      	lrw      	r3, 0xbf700000	// 5c8 <__GI_pow+0x414>
     4dc:	60d0      	addu      	r3, r4
     4de:	6cc0      	or      	r3, r0
     4e0:	3b40      	cmpnei      	r3, 0
     4e2:	0802      	bt      	0x4e6	// 4e6 <__GI_pow+0x332>
     4e4:	05b8      	br      	0x854	// 854 <__GI_pow+0x6a0>
     4e6:	114e      	lrw      	r2, 0x8800759c	// 59c <__GI_pow+0x3e8>
     4e8:	116e      	lrw      	r3, 0x7e37e43c	// 5a0 <__GI_pow+0x3ec>
     4ea:	3000      	movi      	r0, 0
     4ec:	9821      	ld.w      	r1, (r14, 0x4)
     4ee:	e00007cb 	bsr      	0x1484	// 1484 <__muldf3>
     4f2:	114b      	lrw      	r2, 0x8800759c	// 59c <__GI_pow+0x3e8>
     4f4:	116b      	lrw      	r3, 0x7e37e43c	// 5a0 <__GI_pow+0x3ec>
     4f6:	06f7      	br      	0x2e4	// 2e4 <__GI_pow+0x130>
     4f8:	11d5      	lrw      	r6, 0xfffff	// 5cc <__GI_pow+0x418>
     4fa:	6559      	cmplt      	r6, r5
     4fc:	09a6      	bt      	0x848	// 848 <__GI_pow+0x694>
     4fe:	6c13      	mov      	r0, r4
     500:	3200      	movi      	r2, 0
     502:	107f      	lrw      	r3, 0x43400000	// 57c <__GI_pow+0x3c8>
     504:	e00007c0 	bsr      	0x1484	// 1484 <__muldf3>
     508:	3700      	movi      	r7, 0
     50a:	6d03      	mov      	r4, r0
     50c:	6d47      	mov      	r5, r1
     50e:	2f34      	subi      	r7, 53
     510:	5514      	asri      	r0, r5, 20
     512:	103d      	lrw      	r1, 0xfffffc01	// 584 <__GI_pow+0x3d0>
     514:	45ac      	lsli      	r5, r5, 12
     516:	4d4c      	lsri      	r2, r5, 12
     518:	6004      	addu      	r0, r1
     51a:	116e      	lrw      	r3, 0x3988e	// 5d0 <__GI_pow+0x41c>
     51c:	601c      	addu      	r0, r7
     51e:	648d      	cmplt      	r3, r2
     520:	10f8      	lrw      	r7, 0x3ff00000	// 580 <__GI_pow+0x3cc>
     522:	b804      	st.w      	r0, (r14, 0x10)
     524:	6dc8      	or      	r7, r2
     526:	0c09      	bf      	0x538	// 538 <__GI_pow+0x384>
     528:	11cb      	lrw      	r6, 0xbb679	// 5d4 <__GI_pow+0x420>
     52a:	6499      	cmplt      	r6, r2
     52c:	0d90      	bf      	0x84c	// 84c <__GI_pow+0x698>
     52e:	6c83      	mov      	r2, r0
     530:	2200      	addi      	r2, 1
     532:	110a      	lrw      	r0, 0xfff00000	// 5d8 <__GI_pow+0x424>
     534:	b844      	st.w      	r2, (r14, 0x10)
     536:	61c0      	addu      	r7, r0
     538:	3500      	movi      	r5, 0
     53a:	45c3      	lsli      	r6, r5, 3
     53c:	1168      	lrw      	r3, 0x95dc	// 5dc <__GI_pow+0x428>
     53e:	4523      	lsli      	r1, r5, 3
     540:	60d8      	addu      	r3, r6
     542:	9340      	ld.w      	r2, (r3, 0x0)
     544:	b828      	st.w      	r1, (r14, 0x20)
     546:	9361      	ld.w      	r3, (r3, 0x4)
     548:	6c13      	mov      	r0, r4
     54a:	6c5f      	mov      	r1, r7
     54c:	b845      	st.w      	r2, (r14, 0x14)
     54e:	b866      	st.w      	r3, (r14, 0x18)
     550:	e000077e 	bsr      	0x144c	// 144c <__subdf3>
     554:	b809      	st.w      	r0, (r14, 0x24)
     556:	9845      	ld.w      	r2, (r14, 0x14)
     558:	9866      	ld.w      	r3, (r14, 0x18)
     55a:	b82a      	st.w      	r1, (r14, 0x28)
     55c:	6c13      	mov      	r0, r4
     55e:	6c5f      	mov      	r1, r7
     560:	e000075e 	bsr      	0x141c	// 141c <__adddf3>
     564:	6c83      	mov      	r2, r0
     566:	6cc7      	mov      	r3, r1
     568:	3000      	movi      	r0, 0
     56a:	1026      	lrw      	r1, 0x3ff00000	// 580 <__GI_pow+0x3cc>
     56c:	e00008a6 	bsr      	0x16b8	// 16b8 <__divdf3>
     570:	6c83      	mov      	r2, r0
     572:	6cc7      	mov      	r3, r1
     574:	0436      	br      	0x5e0	// 5e0 <__GI_pow+0x42c>
     576:	0000      	bkpt
     578:	7ff00000 	.long	0x7ff00000
     57c:	43400000 	.long	0x43400000
     580:	3ff00000 	.long	0x3ff00000
     584:	fffffc01 	.long	0xfffffc01
     588:	c0100000 	.long	0xc0100000
     58c:	3fe00000 	.long	0x3fe00000
     590:	ffc00000 	.long	0xffc00000
     594:	41e00000 	.long	0x41e00000
     598:	43f00000 	.long	0x43f00000
     59c:	8800759c 	.long	0x8800759c
     5a0:	7e37e43c 	.long	0x7e37e43c
     5a4:	3ff71547 	.long	0x3ff71547
     5a8:	f85ddf44 	.long	0xf85ddf44
     5ac:	3e54ae0b 	.long	0x3e54ae0b
     5b0:	3fd00000 	.long	0x3fd00000
     5b4:	55555555 	.long	0x55555555
     5b8:	3fd55555 	.long	0x3fd55555
     5bc:	652b82fe 	.long	0x652b82fe
     5c0:	bff00000 	.long	0xbff00000
     5c4:	40900000 	.long	0x40900000
     5c8:	bf700000 	.long	0xbf700000
     5cc:	000fffff 	.long	0x000fffff
     5d0:	0003988e 	.long	0x0003988e
     5d4:	000bb679 	.long	0x000bb679
     5d8:	fff00000 	.long	0xfff00000
     5dc:	000095dc 	.long	0x000095dc
     5e0:	b80b      	st.w      	r0, (r14, 0x2c)
     5e2:	b82c      	st.w      	r1, (r14, 0x30)
     5e4:	9809      	ld.w      	r0, (r14, 0x24)
     5e6:	982a      	ld.w      	r1, (r14, 0x28)
     5e8:	e000074e 	bsr      	0x1484	// 1484 <__muldf3>
     5ec:	b803      	st.w      	r0, (r14, 0xc)
     5ee:	3280      	movi      	r2, 128
     5f0:	5701      	asri      	r0, r7, 1
     5f2:	6d87      	mov      	r6, r1
     5f4:	38bd      	bseti      	r0, 29
     5f6:	422c      	lsli      	r1, r2, 12
     5f8:	6004      	addu      	r0, r1
     5fa:	45b2      	lsli      	r5, r5, 18
     5fc:	6140      	addu      	r5, r0
     5fe:	6cd7      	mov      	r3, r5
     600:	3200      	movi      	r2, 0
     602:	6c5b      	mov      	r1, r6
     604:	3000      	movi      	r0, 0
     606:	e000073f 	bsr      	0x1484	// 1484 <__muldf3>
     60a:	6c83      	mov      	r2, r0
     60c:	6cc7      	mov      	r3, r1
     60e:	9809      	ld.w      	r0, (r14, 0x24)
     610:	982a      	ld.w      	r1, (r14, 0x28)
     612:	e000071d 	bsr      	0x144c	// 144c <__subdf3>
     616:	b809      	st.w      	r0, (r14, 0x24)
     618:	9845      	ld.w      	r2, (r14, 0x14)
     61a:	9866      	ld.w      	r3, (r14, 0x18)
     61c:	b82a      	st.w      	r1, (r14, 0x28)
     61e:	3000      	movi      	r0, 0
     620:	6c57      	mov      	r1, r5
     622:	e0000715 	bsr      	0x144c	// 144c <__subdf3>
     626:	6c83      	mov      	r2, r0
     628:	6cc7      	mov      	r3, r1
     62a:	6c13      	mov      	r0, r4
     62c:	6c5f      	mov      	r1, r7
     62e:	e000070f 	bsr      	0x144c	// 144c <__subdf3>
     632:	6cdb      	mov      	r3, r6
     634:	3200      	movi      	r2, 0
     636:	e0000727 	bsr      	0x1484	// 1484 <__muldf3>
     63a:	6c83      	mov      	r2, r0
     63c:	6cc7      	mov      	r3, r1
     63e:	9809      	ld.w      	r0, (r14, 0x24)
     640:	982a      	ld.w      	r1, (r14, 0x28)
     642:	e0000705 	bsr      	0x144c	// 144c <__subdf3>
     646:	984b      	ld.w      	r2, (r14, 0x2c)
     648:	986c      	ld.w      	r3, (r14, 0x30)
     64a:	e000071d 	bsr      	0x1484	// 1484 <__muldf3>
     64e:	9843      	ld.w      	r2, (r14, 0xc)
     650:	6cdb      	mov      	r3, r6
     652:	b805      	st.w      	r0, (r14, 0x14)
     654:	b826      	st.w      	r1, (r14, 0x18)
     656:	6c0b      	mov      	r0, r2
     658:	6c5b      	mov      	r1, r6
     65a:	e0000715 	bsr      	0x1484	// 1484 <__muldf3>
     65e:	ea820113 	lrw      	r2, 0x4a454eef	// aa8 <__GI_pow+0x8f4>
     662:	ea830113 	lrw      	r3, 0x3fca7e28	// aac <__GI_pow+0x8f8>
     666:	6d43      	mov      	r5, r0
     668:	6d07      	mov      	r4, r1
     66a:	e000070d 	bsr      	0x1484	// 1484 <__muldf3>
     66e:	ea820111 	lrw      	r2, 0x93c9db65	// ab0 <__GI_pow+0x8fc>
     672:	ea830111 	lrw      	r3, 0x3fcd864a	// ab4 <__GI_pow+0x900>
     676:	e00006d3 	bsr      	0x141c	// 141c <__adddf3>
     67a:	6c97      	mov      	r2, r5
     67c:	6cd3      	mov      	r3, r4
     67e:	e0000703 	bsr      	0x1484	// 1484 <__muldf3>
     682:	ea82010e 	lrw      	r2, 0xa91d4101	// ab8 <__GI_pow+0x904>
     686:	ea83010e 	lrw      	r3, 0x3fd17460	// abc <__GI_pow+0x908>
     68a:	e00006c9 	bsr      	0x141c	// 141c <__adddf3>
     68e:	6c97      	mov      	r2, r5
     690:	6cd3      	mov      	r3, r4
     692:	e00006f9 	bsr      	0x1484	// 1484 <__muldf3>
     696:	ea82010b 	lrw      	r2, 0x518f264d	// ac0 <__GI_pow+0x90c>
     69a:	ea83010b 	lrw      	r3, 0x3fd55555	// ac4 <__GI_pow+0x910>
     69e:	e00006bf 	bsr      	0x141c	// 141c <__adddf3>
     6a2:	6c97      	mov      	r2, r5
     6a4:	6cd3      	mov      	r3, r4
     6a6:	e00006ef 	bsr      	0x1484	// 1484 <__muldf3>
     6aa:	ea820108 	lrw      	r2, 0xdb6fabff	// ac8 <__GI_pow+0x914>
     6ae:	ea830108 	lrw      	r3, 0x3fdb6db6	// acc <__GI_pow+0x918>
     6b2:	e00006b5 	bsr      	0x141c	// 141c <__adddf3>
     6b6:	6c97      	mov      	r2, r5
     6b8:	6cd3      	mov      	r3, r4
     6ba:	e00006e5 	bsr      	0x1484	// 1484 <__muldf3>
     6be:	ea820105 	lrw      	r2, 0x33333303	// ad0 <__GI_pow+0x91c>
     6c2:	ea830105 	lrw      	r3, 0x3fe33333	// ad4 <__GI_pow+0x920>
     6c6:	e00006ab 	bsr      	0x141c	// 141c <__adddf3>
     6ca:	6dc3      	mov      	r7, r0
     6cc:	6c97      	mov      	r2, r5
     6ce:	6cd3      	mov      	r3, r4
     6d0:	b829      	st.w      	r1, (r14, 0x24)
     6d2:	6c17      	mov      	r0, r5
     6d4:	6c53      	mov      	r1, r4
     6d6:	e00006d7 	bsr      	0x1484	// 1484 <__muldf3>
     6da:	6c83      	mov      	r2, r0
     6dc:	6cc7      	mov      	r3, r1
     6de:	6c1f      	mov      	r0, r7
     6e0:	9829      	ld.w      	r1, (r14, 0x24)
     6e2:	e00006d1 	bsr      	0x1484	// 1484 <__muldf3>
     6e6:	6d43      	mov      	r5, r0
     6e8:	6d07      	mov      	r4, r1
     6ea:	6cdb      	mov      	r3, r6
     6ec:	3200      	movi      	r2, 0
     6ee:	9803      	ld.w      	r0, (r14, 0xc)
     6f0:	6c5b      	mov      	r1, r6
     6f2:	e0000695 	bsr      	0x141c	// 141c <__adddf3>
     6f6:	9845      	ld.w      	r2, (r14, 0x14)
     6f8:	9866      	ld.w      	r3, (r14, 0x18)
     6fa:	e00006c5 	bsr      	0x1484	// 1484 <__muldf3>
     6fe:	6c97      	mov      	r2, r5
     700:	6cd3      	mov      	r3, r4
     702:	e000068d 	bsr      	0x141c	// 141c <__adddf3>
     706:	6d43      	mov      	r5, r0
     708:	6cdb      	mov      	r3, r6
     70a:	b829      	st.w      	r1, (r14, 0x24)
     70c:	3200      	movi      	r2, 0
     70e:	6c5b      	mov      	r1, r6
     710:	3000      	movi      	r0, 0
     712:	e00006b9 	bsr      	0x1484	// 1484 <__muldf3>
     716:	3200      	movi      	r2, 0
     718:	006f      	lrw      	r3, 0x40080000	// ad8 <__GI_pow+0x924>
     71a:	6dc3      	mov      	r7, r0
     71c:	b82a      	st.w      	r1, (r14, 0x28)
     71e:	e000067f 	bsr      	0x141c	// 141c <__adddf3>
     722:	6c97      	mov      	r2, r5
     724:	9869      	ld.w      	r3, (r14, 0x24)
     726:	e000067b 	bsr      	0x141c	// 141c <__adddf3>
     72a:	6d07      	mov      	r4, r1
     72c:	6cc7      	mov      	r3, r1
     72e:	3200      	movi      	r2, 0
     730:	6c5b      	mov      	r1, r6
     732:	3000      	movi      	r0, 0
     734:	e00006a8 	bsr      	0x1484	// 1484 <__muldf3>
     738:	b80b      	st.w      	r0, (r14, 0x2c)
     73a:	b82c      	st.w      	r1, (r14, 0x30)
     73c:	3200      	movi      	r2, 0
     73e:	0078      	lrw      	r3, 0x40080000	// ad8 <__GI_pow+0x924>
     740:	6c53      	mov      	r1, r4
     742:	3000      	movi      	r0, 0
     744:	e0000684 	bsr      	0x144c	// 144c <__subdf3>
     748:	6c9f      	mov      	r2, r7
     74a:	986a      	ld.w      	r3, (r14, 0x28)
     74c:	e0000680 	bsr      	0x144c	// 144c <__subdf3>
     750:	6c83      	mov      	r2, r0
     752:	6cc7      	mov      	r3, r1
     754:	6c17      	mov      	r0, r5
     756:	9829      	ld.w      	r1, (r14, 0x24)
     758:	e000067a 	bsr      	0x144c	// 144c <__subdf3>
     75c:	9843      	ld.w      	r2, (r14, 0xc)
     75e:	6cdb      	mov      	r3, r6
     760:	e0000692 	bsr      	0x1484	// 1484 <__muldf3>
     764:	6d83      	mov      	r6, r0
     766:	6d47      	mov      	r5, r1
     768:	6cd3      	mov      	r3, r4
     76a:	3200      	movi      	r2, 0
     76c:	9805      	ld.w      	r0, (r14, 0x14)
     76e:	9826      	ld.w      	r1, (r14, 0x18)
     770:	e000068a 	bsr      	0x1484	// 1484 <__muldf3>
     774:	6c83      	mov      	r2, r0
     776:	6cc7      	mov      	r3, r1
     778:	6c1b      	mov      	r0, r6
     77a:	6c57      	mov      	r1, r5
     77c:	e0000650 	bsr      	0x141c	// 141c <__adddf3>
     780:	6dc3      	mov      	r7, r0
     782:	6d87      	mov      	r6, r1
     784:	6c83      	mov      	r2, r0
     786:	6cc7      	mov      	r3, r1
     788:	980b      	ld.w      	r0, (r14, 0x2c)
     78a:	982c      	ld.w      	r1, (r14, 0x30)
     78c:	e0000648 	bsr      	0x141c	// 141c <__adddf3>
     790:	33e0      	movi      	r3, 224
     792:	4358      	lsli      	r2, r3, 24
     794:	3000      	movi      	r0, 0
     796:	016d      	lrw      	r3, 0x3feec709	// adc <__GI_pow+0x928>
     798:	6d07      	mov      	r4, r1
     79a:	e0000675 	bsr      	0x1484	// 1484 <__muldf3>
     79e:	b805      	st.w      	r0, (r14, 0x14)
     7a0:	b826      	st.w      	r1, (r14, 0x18)
     7a2:	984b      	ld.w      	r2, (r14, 0x2c)
     7a4:	986c      	ld.w      	r3, (r14, 0x30)
     7a6:	6c53      	mov      	r1, r4
     7a8:	3000      	movi      	r0, 0
     7aa:	e0000651 	bsr      	0x144c	// 144c <__subdf3>
     7ae:	6c83      	mov      	r2, r0
     7b0:	6cc7      	mov      	r3, r1
     7b2:	6c1f      	mov      	r0, r7
     7b4:	6c5b      	mov      	r1, r6
     7b6:	e000064b 	bsr      	0x144c	// 144c <__subdf3>
     7ba:	0155      	lrw      	r2, 0xdc3a03fd	// ae0 <__GI_pow+0x92c>
     7bc:	0177      	lrw      	r3, 0x3feec709	// adc <__GI_pow+0x928>
     7be:	e0000663 	bsr      	0x1484	// 1484 <__muldf3>
     7c2:	6dc3      	mov      	r7, r0
     7c4:	6d47      	mov      	r5, r1
     7c6:	0157      	lrw      	r2, 0x145b01f5	// ae4 <__GI_pow+0x930>
     7c8:	0177      	lrw      	r3, 0xbe3e2fe0	// ae8 <__GI_pow+0x934>
     7ca:	6c53      	mov      	r1, r4
     7cc:	3000      	movi      	r0, 0
     7ce:	e000065b 	bsr      	0x1484	// 1484 <__muldf3>
     7d2:	6c83      	mov      	r2, r0
     7d4:	6cc7      	mov      	r3, r1
     7d6:	6c1f      	mov      	r0, r7
     7d8:	6c57      	mov      	r1, r5
     7da:	e0000621 	bsr      	0x141c	// 141c <__adddf3>
     7de:	01db      	lrw      	r6, 0x95dc	// aec <__GI_pow+0x938>
     7e0:	9848      	ld.w      	r2, (r14, 0x20)
     7e2:	6188      	addu      	r6, r2
     7e4:	9644      	ld.w      	r2, (r6, 0x10)
     7e6:	9665      	ld.w      	r3, (r6, 0x14)
     7e8:	e000061a 	bsr      	0x141c	// 141c <__adddf3>
     7ec:	b809      	st.w      	r0, (r14, 0x24)
     7ee:	9804      	ld.w      	r0, (r14, 0x10)
     7f0:	b82a      	st.w      	r1, (r14, 0x28)
     7f2:	e0000867 	bsr      	0x18c0	// 18c0 <__floatsidf>
     7f6:	6d83      	mov      	r6, r0
     7f8:	0202      	lrw      	r0, 0x95dc	// aec <__GI_pow+0x938>
     7fa:	6d47      	mov      	r5, r1
     7fc:	201f      	addi      	r0, 32
     7fe:	9828      	ld.w      	r1, (r14, 0x20)
     800:	6004      	addu      	r0, r1
     802:	9080      	ld.w      	r4, (r0, 0x0)
     804:	90e1      	ld.w      	r7, (r0, 0x4)
     806:	9849      	ld.w      	r2, (r14, 0x24)
     808:	986a      	ld.w      	r3, (r14, 0x28)
     80a:	9805      	ld.w      	r0, (r14, 0x14)
     80c:	9826      	ld.w      	r1, (r14, 0x18)
     80e:	e0000607 	bsr      	0x141c	// 141c <__adddf3>
     812:	6c93      	mov      	r2, r4
     814:	6cdf      	mov      	r3, r7
     816:	e0000603 	bsr      	0x141c	// 141c <__adddf3>
     81a:	6c9b      	mov      	r2, r6
     81c:	6cd7      	mov      	r3, r5
     81e:	e00005ff 	bsr      	0x141c	// 141c <__adddf3>
     822:	6c9b      	mov      	r2, r6
     824:	6cd7      	mov      	r3, r5
     826:	3000      	movi      	r0, 0
     828:	b823      	st.w      	r1, (r14, 0xc)
     82a:	e0000611 	bsr      	0x144c	// 144c <__subdf3>
     82e:	6c93      	mov      	r2, r4
     830:	6cdf      	mov      	r3, r7
     832:	e000060d 	bsr      	0x144c	// 144c <__subdf3>
     836:	9845      	ld.w      	r2, (r14, 0x14)
     838:	9866      	ld.w      	r3, (r14, 0x18)
     83a:	e0000609 	bsr      	0x144c	// 144c <__subdf3>
     83e:	6c83      	mov      	r2, r0
     840:	6cc7      	mov      	r3, r1
     842:	9809      	ld.w      	r0, (r14, 0x24)
     844:	982a      	ld.w      	r1, (r14, 0x28)
     846:	060b      	br      	0x45c	// 45c <__GI_pow+0x2a8>
     848:	3700      	movi      	r7, 0
     84a:	0663      	br      	0x510	// 510 <__GI_pow+0x35c>
     84c:	3501      	movi      	r5, 1
     84e:	0676      	br      	0x53a	// 53a <__GI_pow+0x386>
     850:	0277      	lrw      	r3, 0x3ff00000	// af0 <__GI_pow+0x93c>
     852:	0611      	br      	0x474	// 474 <__GI_pow+0x2c0>
     854:	0257      	lrw      	r2, 0x652b82fe	// af4 <__GI_pow+0x940>
     856:	0276      	lrw      	r3, 0x3c971547	// af8 <__GI_pow+0x944>
     858:	6c1f      	mov      	r0, r7
     85a:	6c5b      	mov      	r1, r6
     85c:	e00005e0 	bsr      	0x141c	// 141c <__adddf3>
     860:	b805      	st.w      	r0, (r14, 0x14)
     862:	b826      	st.w      	r1, (r14, 0x18)
     864:	9842      	ld.w      	r2, (r14, 0x8)
     866:	6cd7      	mov      	r3, r5
     868:	9800      	ld.w      	r0, (r14, 0x0)
     86a:	6c53      	mov      	r1, r4
     86c:	e00005f0 	bsr      	0x144c	// 144c <__subdf3>
     870:	6c83      	mov      	r2, r0
     872:	6cc7      	mov      	r3, r1
     874:	9805      	ld.w      	r0, (r14, 0x14)
     876:	9826      	ld.w      	r1, (r14, 0x18)
     878:	e00007ca 	bsr      	0x180c	// 180c <__gtdf2>
     87c:	3820      	cmplti      	r0, 1
     87e:	0802      	bt      	0x882	// 882 <__GI_pow+0x6ce>
     880:	0633      	br      	0x4e6	// 4e6 <__GI_pow+0x332>
     882:	4421      	lsli      	r1, r4, 1
     884:	4901      	lsri      	r0, r1, 1
     886:	0361      	lrw      	r3, 0x3fe00000	// afc <__GI_pow+0x948>
     888:	640d      	cmplt      	r3, r0
     88a:	0cfd      	bf      	0xa84	// a84 <__GI_pow+0x8d0>
     88c:	5034      	asri      	r1, r0, 20
     88e:	0342      	lrw      	r2, 0xfffffc02	// b00 <__GI_pow+0x94c>
     890:	3080      	movi      	r0, 128
     892:	6048      	addu      	r1, r2
     894:	404d      	lsli      	r2, r0, 13
     896:	7086      	asr      	r2, r1
     898:	6090      	addu      	r2, r4
     89a:	4261      	lsli      	r3, r2, 1
     89c:	4b35      	lsri      	r1, r3, 21
     89e:	0305      	lrw      	r0, 0xfffffc01	// b04 <__GI_pow+0x950>
     8a0:	6040      	addu      	r1, r0
     8a2:	0365      	lrw      	r3, 0xfffff	// b08 <__GI_pow+0x954>
     8a4:	70c6      	asr      	r3, r1
     8a6:	6c0b      	mov      	r0, r2
     8a8:	680d      	andn      	r0, r3
     8aa:	424c      	lsli      	r2, r2, 12
     8ac:	6cc3      	mov      	r3, r0
     8ae:	4a4c      	lsri      	r2, r2, 12
     8b0:	3014      	movi      	r0, 20
     8b2:	3ab4      	bseti      	r2, 20
     8b4:	5825      	subu      	r1, r0, r1
     8b6:	7086      	asr      	r2, r1
     8b8:	3cdf      	btsti      	r4, 31
     8ba:	b840      	st.w      	r2, (r14, 0x0)
     8bc:	0c05      	bf      	0x8c6	// 8c6 <__GI_pow+0x712>
     8be:	9840      	ld.w      	r2, (r14, 0x0)
     8c0:	3400      	movi      	r4, 0
     8c2:	610a      	subu      	r4, r2
     8c4:	b880      	st.w      	r4, (r14, 0x0)
     8c6:	3200      	movi      	r2, 0
     8c8:	9802      	ld.w      	r0, (r14, 0x8)
     8ca:	6c57      	mov      	r1, r5
     8cc:	e00005c0 	bsr      	0x144c	// 144c <__subdf3>
     8d0:	b803      	st.w      	r0, (r14, 0xc)
     8d2:	b824      	st.w      	r1, (r14, 0x10)
     8d4:	9803      	ld.w      	r0, (r14, 0xc)
     8d6:	6c9f      	mov      	r2, r7
     8d8:	6cdb      	mov      	r3, r6
     8da:	9824      	ld.w      	r1, (r14, 0x10)
     8dc:	e00005a0 	bsr      	0x141c	// 141c <__adddf3>
     8e0:	3200      	movi      	r2, 0
     8e2:	0374      	lrw      	r3, 0x3fe62e43	// b0c <__GI_pow+0x958>
     8e4:	3000      	movi      	r0, 0
     8e6:	6d07      	mov      	r4, r1
     8e8:	e00005ce 	bsr      	0x1484	// 1484 <__muldf3>
     8ec:	6d47      	mov      	r5, r1
     8ee:	9843      	ld.w      	r2, (r14, 0xc)
     8f0:	9864      	ld.w      	r3, (r14, 0x10)
     8f2:	b802      	st.w      	r0, (r14, 0x8)
     8f4:	6c53      	mov      	r1, r4
     8f6:	3000      	movi      	r0, 0
     8f8:	e00005aa 	bsr      	0x144c	// 144c <__subdf3>
     8fc:	6c83      	mov      	r2, r0
     8fe:	6cc7      	mov      	r3, r1
     900:	6c1f      	mov      	r0, r7
     902:	6c5b      	mov      	r1, r6
     904:	e00005a4 	bsr      	0x144c	// 144c <__subdf3>
     908:	035d      	lrw      	r2, 0xfefa39ef	// b10 <__GI_pow+0x95c>
     90a:	037c      	lrw      	r3, 0x3fe62e42	// b14 <__GI_pow+0x960>
     90c:	e00005bc 	bsr      	0x1484	// 1484 <__muldf3>
     910:	6dc3      	mov      	r7, r0
     912:	6d87      	mov      	r6, r1
     914:	035e      	lrw      	r2, 0xca86c39	// b18 <__GI_pow+0x964>
     916:	037d      	lrw      	r3, 0xbe205c61	// b1c <__GI_pow+0x968>
     918:	6c53      	mov      	r1, r4
     91a:	3000      	movi      	r0, 0
     91c:	e00005b4 	bsr      	0x1484	// 1484 <__muldf3>
     920:	6c83      	mov      	r2, r0
     922:	6cc7      	mov      	r3, r1
     924:	6c1f      	mov      	r0, r7
     926:	6c5b      	mov      	r1, r6
     928:	e000057a 	bsr      	0x141c	// 141c <__adddf3>
     92c:	6d07      	mov      	r4, r1
     92e:	6c83      	mov      	r2, r0
     930:	6cc7      	mov      	r3, r1
     932:	b803      	st.w      	r0, (r14, 0xc)
     934:	6c57      	mov      	r1, r5
     936:	9802      	ld.w      	r0, (r14, 0x8)
     938:	e0000572 	bsr      	0x141c	// 141c <__adddf3>
     93c:	9842      	ld.w      	r2, (r14, 0x8)
     93e:	6cd7      	mov      	r3, r5
     940:	6dc3      	mov      	r7, r0
     942:	6d87      	mov      	r6, r1
     944:	e0000584 	bsr      	0x144c	// 144c <__subdf3>
     948:	6c83      	mov      	r2, r0
     94a:	6cc7      	mov      	r3, r1
     94c:	9803      	ld.w      	r0, (r14, 0xc)
     94e:	6c53      	mov      	r1, r4
     950:	e000057e 	bsr      	0x144c	// 144c <__subdf3>
     954:	b802      	st.w      	r0, (r14, 0x8)
     956:	b823      	st.w      	r1, (r14, 0xc)
     958:	6c9f      	mov      	r2, r7
     95a:	6cdb      	mov      	r3, r6
     95c:	6c1f      	mov      	r0, r7
     95e:	6c5b      	mov      	r1, r6
     960:	e0000592 	bsr      	0x1484	// 1484 <__muldf3>
     964:	134f      	lrw      	r2, 0x72bea4d0	// b20 <__GI_pow+0x96c>
     966:	1370      	lrw      	r3, 0x3e663769	// b24 <__GI_pow+0x970>
     968:	6d43      	mov      	r5, r0
     96a:	6d07      	mov      	r4, r1
     96c:	e000058c 	bsr      	0x1484	// 1484 <__muldf3>
     970:	134e      	lrw      	r2, 0xc5d26bf1	// b28 <__GI_pow+0x974>
     972:	136f      	lrw      	r3, 0x3ebbbd41	// b2c <__GI_pow+0x978>
     974:	e000056c 	bsr      	0x144c	// 144c <__subdf3>
     978:	6c97      	mov      	r2, r5
     97a:	6cd3      	mov      	r3, r4
     97c:	e0000584 	bsr      	0x1484	// 1484 <__muldf3>
     980:	134c      	lrw      	r2, 0xaf25de2c	// b30 <__GI_pow+0x97c>
     982:	136d      	lrw      	r3, 0x3f11566a	// b34 <__GI_pow+0x980>
     984:	e000054c 	bsr      	0x141c	// 141c <__adddf3>
     988:	6c97      	mov      	r2, r5
     98a:	6cd3      	mov      	r3, r4
     98c:	e000057c 	bsr      	0x1484	// 1484 <__muldf3>
     990:	134a      	lrw      	r2, 0x16bebd93	// b38 <__GI_pow+0x984>
     992:	136b      	lrw      	r3, 0x3f66c16c	// b3c <__GI_pow+0x988>
     994:	e000055c 	bsr      	0x144c	// 144c <__subdf3>
     998:	6c97      	mov      	r2, r5
     99a:	6cd3      	mov      	r3, r4
     99c:	e0000574 	bsr      	0x1484	// 1484 <__muldf3>
     9a0:	1348      	lrw      	r2, 0x5555553e	// b40 <__GI_pow+0x98c>
     9a2:	1369      	lrw      	r3, 0x3fc55555	// b44 <__GI_pow+0x990>
     9a4:	e000053c 	bsr      	0x141c	// 141c <__adddf3>
     9a8:	6c97      	mov      	r2, r5
     9aa:	6cd3      	mov      	r3, r4
     9ac:	e000056c 	bsr      	0x1484	// 1484 <__muldf3>
     9b0:	6c83      	mov      	r2, r0
     9b2:	6cc7      	mov      	r3, r1
     9b4:	6c1f      	mov      	r0, r7
     9b6:	6c5b      	mov      	r1, r6
     9b8:	e000054a 	bsr      	0x144c	// 144c <__subdf3>
     9bc:	6d43      	mov      	r5, r0
     9be:	6d07      	mov      	r4, r1
     9c0:	6c83      	mov      	r2, r0
     9c2:	6cc7      	mov      	r3, r1
     9c4:	6c1f      	mov      	r0, r7
     9c6:	6c5b      	mov      	r1, r6
     9c8:	e000055e 	bsr      	0x1484	// 1484 <__muldf3>
     9cc:	3380      	movi      	r3, 128
     9ce:	b804      	st.w      	r0, (r14, 0x10)
     9d0:	b825      	st.w      	r1, (r14, 0x14)
     9d2:	3200      	movi      	r2, 0
     9d4:	4377      	lsli      	r3, r3, 23
     9d6:	6c17      	mov      	r0, r5
     9d8:	6c53      	mov      	r1, r4
     9da:	e0000539 	bsr      	0x144c	// 144c <__subdf3>
     9de:	6c83      	mov      	r2, r0
     9e0:	6cc7      	mov      	r3, r1
     9e2:	9804      	ld.w      	r0, (r14, 0x10)
     9e4:	9825      	ld.w      	r1, (r14, 0x14)
     9e6:	e0000669 	bsr      	0x16b8	// 16b8 <__divdf3>
     9ea:	6d07      	mov      	r4, r1
     9ec:	6d43      	mov      	r5, r0
     9ee:	9842      	ld.w      	r2, (r14, 0x8)
     9f0:	9863      	ld.w      	r3, (r14, 0xc)
     9f2:	6c1f      	mov      	r0, r7
     9f4:	6c5b      	mov      	r1, r6
     9f6:	e0000547 	bsr      	0x1484	// 1484 <__muldf3>
     9fa:	9842      	ld.w      	r2, (r14, 0x8)
     9fc:	9863      	ld.w      	r3, (r14, 0xc)
     9fe:	e000050f 	bsr      	0x141c	// 141c <__adddf3>
     a02:	6c83      	mov      	r2, r0
     a04:	6cc7      	mov      	r3, r1
     a06:	6c17      	mov      	r0, r5
     a08:	6c53      	mov      	r1, r4
     a0a:	e0000521 	bsr      	0x144c	// 144c <__subdf3>
     a0e:	6c9f      	mov      	r2, r7
     a10:	6cdb      	mov      	r3, r6
     a12:	e000051d 	bsr      	0x144c	// 144c <__subdf3>
     a16:	6c83      	mov      	r2, r0
     a18:	6cc7      	mov      	r3, r1
     a1a:	3000      	movi      	r0, 0
     a1c:	1135      	lrw      	r1, 0x3ff00000	// af0 <__GI_pow+0x93c>
     a1e:	e0000517 	bsr      	0x144c	// 144c <__subdf3>
     a22:	9840      	ld.w      	r2, (r14, 0x0)
     a24:	4274      	lsli      	r3, r2, 20
     a26:	60c4      	addu      	r3, r1
     a28:	5394      	asri      	r4, r3, 20
     a2a:	3c20      	cmplti      	r4, 1
     a2c:	0c2f      	bf      	0xa8a	// a8a <__GI_pow+0x8d6>
     a2e:	9840      	ld.w      	r2, (r14, 0x0)
     a30:	e000009a 	bsr      	0xb64	// b64 <__GI_scalbn>
     a34:	3200      	movi      	r2, 0
     a36:	9861      	ld.w      	r3, (r14, 0x4)
     a38:	e800fc56 	br      	0x2e4	// 2e4 <__GI_pow+0x130>
     a3c:	4401      	lsli      	r0, r4, 1
     a3e:	4861      	lsri      	r3, r0, 1
     a40:	1242      	lrw      	r2, 0x4090cbff	// b48 <__GI_pow+0x994>
     a42:	64c9      	cmplt      	r2, r3
     a44:	0f1f      	bf      	0x882	// 882 <__GI_pow+0x6ce>
     a46:	1222      	lrw      	r1, 0x3f6f3400	// b4c <__GI_pow+0x998>
     a48:	6050      	addu      	r1, r4
     a4a:	9800      	ld.w      	r0, (r14, 0x0)
     a4c:	6c40      	or      	r1, r0
     a4e:	3940      	cmpnei      	r1, 0
     a50:	0c0b      	bf      	0xa66	// a66 <__GI_pow+0x8b2>
     a52:	1240      	lrw      	r2, 0xc2f8f359	// b50 <__GI_pow+0x99c>
     a54:	1260      	lrw      	r3, 0x1a56e1f	// b54 <__GI_pow+0x9a0>
     a56:	3000      	movi      	r0, 0
     a58:	9821      	ld.w      	r1, (r14, 0x4)
     a5a:	e0000515 	bsr      	0x1484	// 1484 <__muldf3>
     a5e:	115d      	lrw      	r2, 0xc2f8f359	// b50 <__GI_pow+0x99c>
     a60:	117d      	lrw      	r3, 0x1a56e1f	// b54 <__GI_pow+0x9a0>
     a62:	e800fc41 	br      	0x2e4	// 2e4 <__GI_pow+0x130>
     a66:	9842      	ld.w      	r2, (r14, 0x8)
     a68:	6cd7      	mov      	r3, r5
     a6a:	9800      	ld.w      	r0, (r14, 0x0)
     a6c:	6c53      	mov      	r1, r4
     a6e:	e00004ef 	bsr      	0x144c	// 144c <__subdf3>
     a72:	6c83      	mov      	r2, r0
     a74:	6cc7      	mov      	r3, r1
     a76:	6c1f      	mov      	r0, r7
     a78:	6c5b      	mov      	r1, r6
     a7a:	e0000705 	bsr      	0x1884	// 1884 <__ledf2>
     a7e:	3820      	cmplti      	r0, 1
     a80:	0f01      	bf      	0x882	// 882 <__GI_pow+0x6ce>
     a82:	07e8      	br      	0xa52	// a52 <__GI_pow+0x89e>
     a84:	3500      	movi      	r5, 0
     a86:	b8a0      	st.w      	r5, (r14, 0x0)
     a88:	0726      	br      	0x8d4	// 8d4 <__GI_pow+0x720>
     a8a:	6c4f      	mov      	r1, r3
     a8c:	07d4      	br      	0xa34	// a34 <__GI_pow+0x880>
     a8e:	3400      	movi      	r4, 0
     a90:	1038      	lrw      	r1, 0x3ff00000	// af0 <__GI_pow+0x93c>
     a92:	e800fbb5 	br      	0x1fc	// 1fc <__GI_pow+0x48>
     a96:	3400      	movi      	r4, 0
     a98:	9820      	ld.w      	r1, (r14, 0x0)
     a9a:	e800fbb1 	br      	0x1fc	// 1fc <__GI_pow+0x48>
     a9e:	6d1f      	mov      	r4, r7
     aa0:	6c5b      	mov      	r1, r6
     aa2:	e800fbad 	br      	0x1fc	// 1fc <__GI_pow+0x48>
     aa6:	0000      	bkpt
     aa8:	4a454eef 	.long	0x4a454eef
     aac:	3fca7e28 	.long	0x3fca7e28
     ab0:	93c9db65 	.long	0x93c9db65
     ab4:	3fcd864a 	.long	0x3fcd864a
     ab8:	a91d4101 	.long	0xa91d4101
     abc:	3fd17460 	.long	0x3fd17460
     ac0:	518f264d 	.long	0x518f264d
     ac4:	3fd55555 	.long	0x3fd55555
     ac8:	db6fabff 	.long	0xdb6fabff
     acc:	3fdb6db6 	.long	0x3fdb6db6
     ad0:	33333303 	.long	0x33333303
     ad4:	3fe33333 	.long	0x3fe33333
     ad8:	40080000 	.long	0x40080000
     adc:	3feec709 	.long	0x3feec709
     ae0:	dc3a03fd 	.long	0xdc3a03fd
     ae4:	145b01f5 	.long	0x145b01f5
     ae8:	be3e2fe0 	.long	0xbe3e2fe0
     aec:	000095dc 	.long	0x000095dc
     af0:	3ff00000 	.long	0x3ff00000
     af4:	652b82fe 	.long	0x652b82fe
     af8:	3c971547 	.long	0x3c971547
     afc:	3fe00000 	.long	0x3fe00000
     b00:	fffffc02 	.long	0xfffffc02
     b04:	fffffc01 	.long	0xfffffc01
     b08:	000fffff 	.long	0x000fffff
     b0c:	3fe62e43 	.long	0x3fe62e43
     b10:	fefa39ef 	.long	0xfefa39ef
     b14:	3fe62e42 	.long	0x3fe62e42
     b18:	0ca86c39 	.long	0x0ca86c39
     b1c:	be205c61 	.long	0xbe205c61
     b20:	72bea4d0 	.long	0x72bea4d0
     b24:	3e663769 	.long	0x3e663769
     b28:	c5d26bf1 	.long	0xc5d26bf1
     b2c:	3ebbbd41 	.long	0x3ebbbd41
     b30:	af25de2c 	.long	0xaf25de2c
     b34:	3f11566a 	.long	0x3f11566a
     b38:	16bebd93 	.long	0x16bebd93
     b3c:	3f66c16c 	.long	0x3f66c16c
     b40:	5555553e 	.long	0x5555553e
     b44:	3fc55555 	.long	0x3fc55555
     b48:	4090cbff 	.long	0x4090cbff
     b4c:	3f6f3400 	.long	0x3f6f3400
     b50:	c2f8f359 	.long	0xc2f8f359
     b54:	01a56e1f 	.long	0x01a56e1f
     b58:	3300      	movi      	r3, 0
     b5a:	e800fb94 	br      	0x282	// 282 <__GI_pow+0xce>

00000b5e <__GI_fabs>:
     b5e:	4121      	lsli      	r1, r1, 1
     b60:	4921      	lsri      	r1, r1, 1
     b62:	783c      	jmp      	r15

00000b64 <__GI_scalbn>:
     b64:	14c1      	push      	r4
     b66:	6cc7      	mov      	r3, r1
     b68:	6cc0      	or      	r3, r0
     b6a:	3b40      	cmpnei      	r3, 0
     b6c:	0c08      	bf      	0xb7c	// b7c <__GI_scalbn+0x18>
     b6e:	1065      	lrw      	r3, 0x7ff00000	// b80 <__GI_scalbn+0x1c>
     b70:	6d07      	mov      	r4, r1
     b72:	690c      	and      	r4, r3
     b74:	4254      	lsli      	r2, r2, 20
     b76:	6090      	addu      	r2, r4
     b78:	684d      	andn      	r1, r3
     b7a:	6c48      	or      	r1, r2
     b7c:	1481      	pop      	r4
     b7e:	0000      	bkpt
     b80:	7ff00000 	.long	0x7ff00000

00000b84 <__GI_sqrt>:
     b84:	14d4      	push      	r4-r7, r15
     b86:	1423      	subi      	r14, r14, 12
     b88:	127a      	lrw      	r3, 0x7ff00000	// cf0 <__GI_sqrt+0x16c>
     b8a:	6d43      	mov      	r5, r0
     b8c:	6d07      	mov      	r4, r1
     b8e:	6c07      	mov      	r0, r1
     b90:	684c      	and      	r1, r3
     b92:	64c6      	cmpne      	r1, r3
     b94:	6c97      	mov      	r2, r5
     b96:	0812      	bt      	0xbba	// bba <__GI_sqrt+0x36>
     b98:	6cd3      	mov      	r3, r4
     b9a:	6c17      	mov      	r0, r5
     b9c:	6c53      	mov      	r1, r4
     b9e:	e0000473 	bsr      	0x1484	// 1484 <__muldf3>
     ba2:	6c83      	mov      	r2, r0
     ba4:	6cc7      	mov      	r3, r1
     ba6:	6c17      	mov      	r0, r5
     ba8:	6c53      	mov      	r1, r4
     baa:	e0000439 	bsr      	0x141c	// 141c <__adddf3>
     bae:	6d43      	mov      	r5, r0
     bb0:	6d07      	mov      	r4, r1
     bb2:	6c17      	mov      	r0, r5
     bb4:	6c53      	mov      	r1, r4
     bb6:	1403      	addi      	r14, r14, 12
     bb8:	1494      	pop      	r4-r7, r15
     bba:	3c20      	cmplti      	r4, 1
     bbc:	0c13      	bf      	0xbe2	// be2 <__GI_sqrt+0x5e>
     bbe:	4461      	lsli      	r3, r4, 1
     bc0:	4b21      	lsri      	r1, r3, 1
     bc2:	6c54      	or      	r1, r5
     bc4:	3940      	cmpnei      	r1, 0
     bc6:	0ff6      	bf      	0xbb2	// bb2 <__GI_sqrt+0x2e>
     bc8:	3c40      	cmpnei      	r4, 0
     bca:	0c0c      	bf      	0xbe2	// be2 <__GI_sqrt+0x5e>
     bcc:	6c97      	mov      	r2, r5
     bce:	6cd3      	mov      	r3, r4
     bd0:	6c17      	mov      	r0, r5
     bd2:	6c53      	mov      	r1, r4
     bd4:	e000043c 	bsr      	0x144c	// 144c <__subdf3>
     bd8:	6c83      	mov      	r2, r0
     bda:	6cc7      	mov      	r3, r1
     bdc:	e000056e 	bsr      	0x16b8	// 16b8 <__divdf3>
     be0:	07e7      	br      	0xbae	// bae <__GI_sqrt+0x2a>
     be2:	5494      	asri      	r4, r4, 20
     be4:	3c40      	cmpnei      	r4, 0
     be6:	0812      	bt      	0xc0a	// c0a <__GI_sqrt+0x86>
     be8:	3840      	cmpnei      	r0, 0
     bea:	0c76      	bf      	0xcd6	// cd6 <__GI_sqrt+0x152>
     bec:	3580      	movi      	r5, 128
     bee:	3300      	movi      	r3, 0
     bf0:	452d      	lsli      	r1, r5, 13
     bf2:	6d83      	mov      	r6, r0
     bf4:	6984      	and      	r6, r1
     bf6:	3e40      	cmpnei      	r6, 0
     bf8:	0c73      	bf      	0xcde	// cde <__GI_sqrt+0x15a>
     bfa:	5b23      	subi      	r1, r3, 1
     bfc:	3620      	movi      	r6, 32
     bfe:	6106      	subu      	r4, r1
     c00:	618e      	subu      	r6, r3
     c02:	6c4b      	mov      	r1, r2
     c04:	7059      	lsr      	r1, r6
     c06:	6c04      	or      	r0, r1
     c08:	708c      	lsl      	r2, r3
     c0a:	117b      	lrw      	r3, 0xfffffc01	// cf4 <__GI_sqrt+0x170>
     c0c:	610c      	addu      	r4, r3
     c0e:	3601      	movi      	r6, 1
     c10:	400c      	lsli      	r0, r0, 12
     c12:	6990      	and      	r6, r4
     c14:	480c      	lsri      	r0, r0, 12
     c16:	3e40      	cmpnei      	r6, 0
     c18:	38b4      	bseti      	r0, 20
     c1a:	0c05      	bf      	0xc24	// c24 <__GI_sqrt+0xa0>
     c1c:	4a3f      	lsri      	r1, r2, 31
     c1e:	40a1      	lsli      	r5, r0, 1
     c20:	5914      	addu      	r0, r1, r5
     c22:	4241      	lsli      	r2, r2, 1
     c24:	4a7f      	lsri      	r3, r2, 31
     c26:	60c0      	addu      	r3, r0
     c28:	5481      	asri      	r4, r4, 1
     c2a:	3680      	movi      	r6, 128
     c2c:	3100      	movi      	r1, 0
     c2e:	60c0      	addu      	r3, r0
     c30:	b882      	st.w      	r4, (r14, 0x8)
     c32:	4241      	lsli      	r2, r2, 1
     c34:	3516      	movi      	r5, 22
     c36:	460e      	lsli      	r0, r6, 14
     c38:	b820      	st.w      	r1, (r14, 0x0)
     c3a:	5980      	addu      	r4, r1, r0
     c3c:	650d      	cmplt      	r3, r4
     c3e:	0806      	bt      	0xc4a	// c4a <__GI_sqrt+0xc6>
     c40:	98c0      	ld.w      	r6, (r14, 0x0)
     c42:	6180      	addu      	r6, r0
     c44:	5c20      	addu      	r1, r4, r0
     c46:	60d2      	subu      	r3, r4
     c48:	b8c0      	st.w      	r6, (r14, 0x0)
     c4a:	2d00      	subi      	r5, 1
     c4c:	4a9f      	lsri      	r4, r2, 31
     c4e:	4361      	lsli      	r3, r3, 1
     c50:	3d40      	cmpnei      	r5, 0
     c52:	60d0      	addu      	r3, r4
     c54:	4241      	lsli      	r2, r2, 1
     c56:	4801      	lsri      	r0, r0, 1
     c58:	0bf1      	bt      	0xc3a	// c3a <__GI_sqrt+0xb6>
     c5a:	3620      	movi      	r6, 32
     c5c:	3480      	movi      	r4, 128
     c5e:	3000      	movi      	r0, 0
     c60:	b8c1      	st.w      	r6, (r14, 0x4)
     c62:	4498      	lsli      	r4, r4, 24
     c64:	64c5      	cmplt      	r1, r3
     c66:	5cd4      	addu      	r6, r4, r5
     c68:	0805      	bt      	0xc72	// c72 <__GI_sqrt+0xee>
     c6a:	644e      	cmpne      	r3, r1
     c6c:	0810      	bt      	0xc8c	// c8c <__GI_sqrt+0x108>
     c6e:	6588      	cmphs      	r2, r6
     c70:	0c0e      	bf      	0xc8c	// c8c <__GI_sqrt+0x108>
     c72:	3edf      	btsti      	r6, 31
     c74:	5eb0      	addu      	r5, r6, r4
     c76:	0c37      	bf      	0xce4	// ce4 <__GI_sqrt+0x160>
     c78:	3ddf      	btsti      	r5, 31
     c7a:	0835      	bt      	0xce4	// ce4 <__GI_sqrt+0x160>
     c7c:	59e2      	addi      	r7, r1, 1
     c7e:	6588      	cmphs      	r2, r6
     c80:	60c6      	subu      	r3, r1
     c82:	0802      	bt      	0xc86	// c86 <__GI_sqrt+0x102>
     c84:	2b00      	subi      	r3, 1
     c86:	609a      	subu      	r2, r6
     c88:	6010      	addu      	r0, r4
     c8a:	6c5f      	mov      	r1, r7
     c8c:	4adf      	lsri      	r6, r2, 31
     c8e:	618c      	addu      	r6, r3
     c90:	60d8      	addu      	r3, r6
     c92:	98c1      	ld.w      	r6, (r14, 0x4)
     c94:	2e00      	subi      	r6, 1
     c96:	3e40      	cmpnei      	r6, 0
     c98:	4241      	lsli      	r2, r2, 1
     c9a:	4c81      	lsri      	r4, r4, 1
     c9c:	b8c1      	st.w      	r6, (r14, 0x4)
     c9e:	0be3      	bt      	0xc64	// c64 <__GI_sqrt+0xe0>
     ca0:	6cc8      	or      	r3, r2
     ca2:	3b40      	cmpnei      	r3, 0
     ca4:	0c09      	bf      	0xcb6	// cb6 <__GI_sqrt+0x132>
     ca6:	3300      	movi      	r3, 0
     ca8:	2b00      	subi      	r3, 1
     caa:	64c2      	cmpne      	r0, r3
     cac:	081e      	bt      	0xce8	// ce8 <__GI_sqrt+0x164>
     cae:	9800      	ld.w      	r0, (r14, 0x0)
     cb0:	2000      	addi      	r0, 1
     cb2:	b800      	st.w      	r0, (r14, 0x0)
     cb4:	3000      	movi      	r0, 0
     cb6:	3401      	movi      	r4, 1
     cb8:	9860      	ld.w      	r3, (r14, 0x0)
     cba:	98a0      	ld.w      	r5, (r14, 0x0)
     cbc:	690c      	and      	r4, r3
     cbe:	5541      	asri      	r2, r5, 1
     cc0:	102e      	lrw      	r1, 0x3fe00000	// cf8 <__GI_sqrt+0x174>
     cc2:	3c40      	cmpnei      	r4, 0
     cc4:	6048      	addu      	r1, r2
     cc6:	4801      	lsri      	r0, r0, 1
     cc8:	0c02      	bf      	0xccc	// ccc <__GI_sqrt+0x148>
     cca:	38bf      	bseti      	r0, 31
     ccc:	98a2      	ld.w      	r5, (r14, 0x8)
     cce:	4594      	lsli      	r4, r5, 20
     cd0:	6104      	addu      	r4, r1
     cd2:	6d43      	mov      	r5, r0
     cd4:	076f      	br      	0xbb2	// bb2 <__GI_sqrt+0x2e>
     cd6:	4a0b      	lsri      	r0, r2, 11
     cd8:	2c14      	subi      	r4, 21
     cda:	4255      	lsli      	r2, r2, 21
     cdc:	0786      	br      	0xbe8	// be8 <__GI_sqrt+0x64>
     cde:	4001      	lsli      	r0, r0, 1
     ce0:	2300      	addi      	r3, 1
     ce2:	0788      	br      	0xbf2	// bf2 <__GI_sqrt+0x6e>
     ce4:	6dc7      	mov      	r7, r1
     ce6:	07cc      	br      	0xc7e	// c7e <__GI_sqrt+0xfa>
     ce8:	2000      	addi      	r0, 1
     cea:	3880      	bclri      	r0, 0
     cec:	07e5      	br      	0xcb6	// cb6 <__GI_sqrt+0x132>
     cee:	0000      	bkpt
     cf0:	7ff00000 	.long	0x7ff00000
     cf4:	fffffc01 	.long	0xfffffc01
     cf8:	3fe00000 	.long	0x3fe00000

00000cfc <___gnu_csky_case_uqi>:
     cfc:	1421      	subi      	r14, r14, 4
     cfe:	b820      	st.w      	r1, (r14, 0x0)
     d00:	6c7f      	mov      	r1, r15
     d02:	6040      	addu      	r1, r0
     d04:	8120      	ld.b      	r1, (r1, 0x0)
     d06:	4121      	lsli      	r1, r1, 1
     d08:	63c4      	addu      	r15, r1
     d0a:	9820      	ld.w      	r1, (r14, 0x0)
     d0c:	1401      	addi      	r14, r14, 4
     d0e:	783c      	jmp      	r15

00000d10 <___gnu_csky_case_uhi>:
     d10:	1422      	subi      	r14, r14, 8
     d12:	b801      	st.w      	r0, (r14, 0x4)
     d14:	b820      	st.w      	r1, (r14, 0x0)
     d16:	6c7f      	mov      	r1, r15
     d18:	4001      	lsli      	r0, r0, 1
     d1a:	6040      	addu      	r1, r0
     d1c:	8920      	ld.h      	r1, (r1, 0x0)
     d1e:	4121      	lsli      	r1, r1, 1
     d20:	63c4      	addu      	r15, r1
     d22:	9801      	ld.w      	r0, (r14, 0x4)
     d24:	9820      	ld.w      	r1, (r14, 0x0)
     d26:	1402      	addi      	r14, r14, 8
     d28:	783c      	jmp      	r15
	...

00000d2c <__fixunssfsi>:
     d2c:	14d1      	push      	r4, r15
     d2e:	319e      	movi      	r1, 158
     d30:	4137      	lsli      	r1, r1, 23
     d32:	6d03      	mov      	r4, r0
     d34:	e0000192 	bsr      	0x1058	// 1058 <__gesf2>
     d38:	38df      	btsti      	r0, 31
     d3a:	0c05      	bf      	0xd44	// d44 <__fixunssfsi+0x18>
     d3c:	6c13      	mov      	r0, r4
     d3e:	e00001db 	bsr      	0x10f4	// 10f4 <__fixsfsi>
     d42:	1491      	pop      	r4, r15
     d44:	319e      	movi      	r1, 158
     d46:	4137      	lsli      	r1, r1, 23
     d48:	6c13      	mov      	r0, r4
     d4a:	e00000e1 	bsr      	0xf0c	// f0c <__subsf3>
     d4e:	e00001d3 	bsr      	0x10f4	// 10f4 <__fixsfsi>
     d52:	3380      	movi      	r3, 128
     d54:	4378      	lsli      	r3, r3, 24
     d56:	600c      	addu      	r0, r3
     d58:	1491      	pop      	r4, r15
	...

00000d5c <__fixunsdfsi>:
     d5c:	14d2      	push      	r4-r5, r15
     d5e:	3200      	movi      	r2, 0
     d60:	106c      	lrw      	r3, 0x41e00000	// d90 <__fixunsdfsi+0x34>
     d62:	6d43      	mov      	r5, r0
     d64:	6d07      	mov      	r4, r1
     d66:	e0000571 	bsr      	0x1848	// 1848 <__gedf2>
     d6a:	38df      	btsti      	r0, 31
     d6c:	0c06      	bf      	0xd78	// d78 <__fixunsdfsi+0x1c>
     d6e:	6c17      	mov      	r0, r5
     d70:	6c53      	mov      	r1, r4
     d72:	e00005df 	bsr      	0x1930	// 1930 <__fixdfsi>
     d76:	1492      	pop      	r4-r5, r15
     d78:	3200      	movi      	r2, 0
     d7a:	1066      	lrw      	r3, 0x41e00000	// d90 <__fixunsdfsi+0x34>
     d7c:	6c17      	mov      	r0, r5
     d7e:	6c53      	mov      	r1, r4
     d80:	e0000366 	bsr      	0x144c	// 144c <__subdf3>
     d84:	e00005d6 	bsr      	0x1930	// 1930 <__fixdfsi>
     d88:	3380      	movi      	r3, 128
     d8a:	4378      	lsli      	r3, r3, 24
     d8c:	600c      	addu      	r0, r3
     d8e:	1492      	pop      	r4-r5, r15
     d90:	41e00000 	.long	0x41e00000

00000d94 <_fpadd_parts>:
     d94:	14c4      	push      	r4-r7
     d96:	1421      	subi      	r14, r14, 4
     d98:	9060      	ld.w      	r3, (r0, 0x0)
     d9a:	3b01      	cmphsi      	r3, 2
     d9c:	0c3b      	bf      	0xe12	// e12 <_fpadd_parts+0x7e>
     d9e:	9180      	ld.w      	r4, (r1, 0x0)
     da0:	3c01      	cmphsi      	r4, 2
     da2:	0c3a      	bf      	0xe16	// e16 <_fpadd_parts+0x82>
     da4:	3b44      	cmpnei      	r3, 4
     da6:	0c76      	bf      	0xe92	// e92 <_fpadd_parts+0xfe>
     da8:	3c44      	cmpnei      	r4, 4
     daa:	0c36      	bf      	0xe16	// e16 <_fpadd_parts+0x82>
     dac:	3c42      	cmpnei      	r4, 2
     dae:	0c5c      	bf      	0xe66	// e66 <_fpadd_parts+0xd2>
     db0:	3b42      	cmpnei      	r3, 2
     db2:	0c32      	bf      	0xe16	// e16 <_fpadd_parts+0x82>
     db4:	90a2      	ld.w      	r5, (r0, 0x8)
     db6:	91e2      	ld.w      	r7, (r1, 0x8)
     db8:	5d9d      	subu      	r4, r5, r7
     dba:	9063      	ld.w      	r3, (r0, 0xc)
     dbc:	3cdf      	btsti      	r4, 31
     dbe:	b860      	st.w      	r3, (r14, 0x0)
     dc0:	6d93      	mov      	r6, r4
     dc2:	9163      	ld.w      	r3, (r1, 0xc)
     dc4:	086f      	bt      	0xea2	// ea2 <_fpadd_parts+0x10e>
     dc6:	3e3f      	cmplti      	r6, 32
     dc8:	082a      	bt      	0xe1c	// e1c <_fpadd_parts+0x88>
     dca:	655d      	cmplt      	r7, r5
     dcc:	0c5f      	bf      	0xe8a	// e8a <_fpadd_parts+0xf6>
     dce:	3300      	movi      	r3, 0
     dd0:	9001      	ld.w      	r0, (r0, 0x4)
     dd2:	9121      	ld.w      	r1, (r1, 0x4)
     dd4:	6442      	cmpne      	r0, r1
     dd6:	0c33      	bf      	0xe3c	// e3c <_fpadd_parts+0xa8>
     dd8:	3840      	cmpnei      	r0, 0
     dda:	9820      	ld.w      	r1, (r14, 0x0)
     ddc:	0c54      	bf      	0xe84	// e84 <_fpadd_parts+0xf0>
     dde:	60c6      	subu      	r3, r1
     de0:	3bdf      	btsti      	r3, 31
     de2:	0863      	bt      	0xea8	// ea8 <_fpadd_parts+0x114>
     de4:	3100      	movi      	r1, 0
     de6:	b221      	st.w      	r1, (r2, 0x4)
     de8:	b2a2      	st.w      	r5, (r2, 0x8)
     dea:	b263      	st.w      	r3, (r2, 0xc)
     dec:	5b23      	subi      	r1, r3, 1
     dee:	119b      	lrw      	r4, 0x3fffffff	// ed8 <_fpadd_parts+0x144>
     df0:	6504      	cmphs      	r1, r4
     df2:	080b      	bt      	0xe08	// e08 <_fpadd_parts+0x74>
     df4:	9222      	ld.w      	r1, (r2, 0x8)
     df6:	2900      	subi      	r1, 1
     df8:	4361      	lsli      	r3, r3, 1
     dfa:	5b03      	subi      	r0, r3, 1
     dfc:	6410      	cmphs      	r4, r0
     dfe:	6d47      	mov      	r5, r1
     e00:	2900      	subi      	r1, 1
     e02:	0bfb      	bt      	0xdf8	// df8 <_fpadd_parts+0x64>
     e04:	b263      	st.w      	r3, (r2, 0xc)
     e06:	b2a2      	st.w      	r5, (r2, 0x8)
     e08:	3103      	movi      	r1, 3
     e0a:	3bdf      	btsti      	r3, 31
     e0c:	b220      	st.w      	r1, (r2, 0x0)
     e0e:	0821      	bt      	0xe50	// e50 <_fpadd_parts+0xbc>
     e10:	6c0b      	mov      	r0, r2
     e12:	1401      	addi      	r14, r14, 4
     e14:	1484      	pop      	r4-r7
     e16:	6c07      	mov      	r0, r1
     e18:	1401      	addi      	r14, r14, 4
     e1a:	1484      	pop      	r4-r7
     e1c:	3c20      	cmplti      	r4, 1
     e1e:	084c      	bt      	0xeb6	// eb6 <_fpadd_parts+0x122>
     e20:	3401      	movi      	r4, 1
     e22:	7118      	lsl      	r4, r6
     e24:	2c00      	subi      	r4, 1
     e26:	6dcf      	mov      	r7, r3
     e28:	68d0      	and      	r3, r4
     e2a:	3b40      	cmpnei      	r3, 0
     e2c:	9001      	ld.w      	r0, (r0, 0x4)
     e2e:	3300      	movi      	r3, 0
     e30:	9121      	ld.w      	r1, (r1, 0x4)
     e32:	60cd      	addc      	r3, r3
     e34:	71d9      	lsr      	r7, r6
     e36:	6442      	cmpne      	r0, r1
     e38:	6cdc      	or      	r3, r7
     e3a:	0bcf      	bt      	0xdd8	// dd8 <_fpadd_parts+0x44>
     e3c:	9820      	ld.w      	r1, (r14, 0x0)
     e3e:	604c      	addu      	r1, r3
     e40:	6cc7      	mov      	r3, r1
     e42:	b223      	st.w      	r1, (r2, 0xc)
     e44:	3bdf      	btsti      	r3, 31
     e46:	3103      	movi      	r1, 3
     e48:	b201      	st.w      	r0, (r2, 0x4)
     e4a:	b2a2      	st.w      	r5, (r2, 0x8)
     e4c:	b220      	st.w      	r1, (r2, 0x0)
     e4e:	0fe1      	bf      	0xe10	// e10 <_fpadd_parts+0x7c>
     e50:	3001      	movi      	r0, 1
     e52:	4b21      	lsri      	r1, r3, 1
     e54:	68c0      	and      	r3, r0
     e56:	6cc4      	or      	r3, r1
     e58:	b263      	st.w      	r3, (r2, 0xc)
     e5a:	9262      	ld.w      	r3, (r2, 0x8)
     e5c:	2300      	addi      	r3, 1
     e5e:	6c0b      	mov      	r0, r2
     e60:	b262      	st.w      	r3, (r2, 0x8)
     e62:	1401      	addi      	r14, r14, 4
     e64:	1484      	pop      	r4-r7
     e66:	3b42      	cmpnei      	r3, 2
     e68:	0bd5      	bt      	0xe12	// e12 <_fpadd_parts+0x7e>
     e6a:	b260      	st.w      	r3, (r2, 0x0)
     e6c:	9061      	ld.w      	r3, (r0, 0x4)
     e6e:	b261      	st.w      	r3, (r2, 0x4)
     e70:	9062      	ld.w      	r3, (r0, 0x8)
     e72:	b262      	st.w      	r3, (r2, 0x8)
     e74:	9063      	ld.w      	r3, (r0, 0xc)
     e76:	9121      	ld.w      	r1, (r1, 0x4)
     e78:	b263      	st.w      	r3, (r2, 0xc)
     e7a:	9061      	ld.w      	r3, (r0, 0x4)
     e7c:	68c4      	and      	r3, r1
     e7e:	b261      	st.w      	r3, (r2, 0x4)
     e80:	6c0b      	mov      	r0, r2
     e82:	07c8      	br      	0xe12	// e12 <_fpadd_parts+0x7e>
     e84:	604e      	subu      	r1, r3
     e86:	6cc7      	mov      	r3, r1
     e88:	07ac      	br      	0xde0	// de0 <_fpadd_parts+0x4c>
     e8a:	3400      	movi      	r4, 0
     e8c:	6d5f      	mov      	r5, r7
     e8e:	b880      	st.w      	r4, (r14, 0x0)
     e90:	07a0      	br      	0xdd0	// dd0 <_fpadd_parts+0x3c>
     e92:	3c44      	cmpnei      	r4, 4
     e94:	0bbf      	bt      	0xe12	// e12 <_fpadd_parts+0x7e>
     e96:	9041      	ld.w      	r2, (r0, 0x4)
     e98:	9161      	ld.w      	r3, (r1, 0x4)
     e9a:	64ca      	cmpne      	r2, r3
     e9c:	0fbb      	bf      	0xe12	// e12 <_fpadd_parts+0x7e>
     e9e:	1010      	lrw      	r0, 0x960c	// edc <_fpadd_parts+0x148>
     ea0:	07b9      	br      	0xe12	// e12 <_fpadd_parts+0x7e>
     ea2:	3600      	movi      	r6, 0
     ea4:	6192      	subu      	r6, r4
     ea6:	0790      	br      	0xdc6	// dc6 <_fpadd_parts+0x32>
     ea8:	3101      	movi      	r1, 1
     eaa:	b221      	st.w      	r1, (r2, 0x4)
     eac:	3100      	movi      	r1, 0
     eae:	596d      	subu      	r3, r1, r3
     eb0:	b2a2      	st.w      	r5, (r2, 0x8)
     eb2:	b263      	st.w      	r3, (r2, 0xc)
     eb4:	079c      	br      	0xdec	// dec <_fpadd_parts+0x58>
     eb6:	3c40      	cmpnei      	r4, 0
     eb8:	0f8c      	bf      	0xdd0	// dd0 <_fpadd_parts+0x3c>
     eba:	3401      	movi      	r4, 1
     ebc:	98e0      	ld.w      	r7, (r14, 0x0)
     ebe:	7118      	lsl      	r4, r6
     ec0:	71d9      	lsr      	r7, r6
     ec2:	6158      	addu      	r5, r6
     ec4:	2c00      	subi      	r4, 1
     ec6:	98c0      	ld.w      	r6, (r14, 0x0)
     ec8:	6918      	and      	r4, r6
     eca:	3c40      	cmpnei      	r4, 0
     ecc:	3400      	movi      	r4, 0
     ece:	6111      	addc      	r4, r4
     ed0:	6dd0      	or      	r7, r4
     ed2:	b8e0      	st.w      	r7, (r14, 0x0)
     ed4:	077e      	br      	0xdd0	// dd0 <_fpadd_parts+0x3c>
     ed6:	0000      	bkpt
     ed8:	3fffffff 	.long	0x3fffffff
     edc:	0000960c 	.long	0x0000960c

00000ee0 <__addsf3>:
     ee0:	14d0      	push      	r15
     ee2:	142e      	subi      	r14, r14, 56
     ee4:	b800      	st.w      	r0, (r14, 0x0)
     ee6:	b821      	st.w      	r1, (r14, 0x4)
     ee8:	6c3b      	mov      	r0, r14
     eea:	1902      	addi      	r1, r14, 8
     eec:	e000063a 	bsr      	0x1b60	// 1b60 <__unpack_f>
     ef0:	1906      	addi      	r1, r14, 24
     ef2:	1801      	addi      	r0, r14, 4
     ef4:	e0000636 	bsr      	0x1b60	// 1b60 <__unpack_f>
     ef8:	1a0a      	addi      	r2, r14, 40
     efa:	1906      	addi      	r1, r14, 24
     efc:	1802      	addi      	r0, r14, 8
     efe:	e3ffff4b 	bsr      	0xd94	// d94 <_fpadd_parts>
     f02:	e00005d3 	bsr      	0x1aa8	// 1aa8 <__pack_f>
     f06:	140e      	addi      	r14, r14, 56
     f08:	1490      	pop      	r15
	...

00000f0c <__subsf3>:
     f0c:	14d0      	push      	r15
     f0e:	142e      	subi      	r14, r14, 56
     f10:	b800      	st.w      	r0, (r14, 0x0)
     f12:	b821      	st.w      	r1, (r14, 0x4)
     f14:	6c3b      	mov      	r0, r14
     f16:	1902      	addi      	r1, r14, 8
     f18:	e0000624 	bsr      	0x1b60	// 1b60 <__unpack_f>
     f1c:	1906      	addi      	r1, r14, 24
     f1e:	1801      	addi      	r0, r14, 4
     f20:	e0000620 	bsr      	0x1b60	// 1b60 <__unpack_f>
     f24:	9867      	ld.w      	r3, (r14, 0x1c)
     f26:	3201      	movi      	r2, 1
     f28:	6cc9      	xor      	r3, r2
     f2a:	1906      	addi      	r1, r14, 24
     f2c:	1a0a      	addi      	r2, r14, 40
     f2e:	1802      	addi      	r0, r14, 8
     f30:	b867      	st.w      	r3, (r14, 0x1c)
     f32:	e3ffff31 	bsr      	0xd94	// d94 <_fpadd_parts>
     f36:	e00005b9 	bsr      	0x1aa8	// 1aa8 <__pack_f>
     f3a:	140e      	addi      	r14, r14, 56
     f3c:	1490      	pop      	r15
	...

00000f40 <__mulsf3>:
     f40:	14d4      	push      	r4-r7, r15
     f42:	1430      	subi      	r14, r14, 64
     f44:	b802      	st.w      	r0, (r14, 0x8)
     f46:	b823      	st.w      	r1, (r14, 0xc)
     f48:	1802      	addi      	r0, r14, 8
     f4a:	1904      	addi      	r1, r14, 16
     f4c:	e000060a 	bsr      	0x1b60	// 1b60 <__unpack_f>
     f50:	1908      	addi      	r1, r14, 32
     f52:	1803      	addi      	r0, r14, 12
     f54:	e0000606 	bsr      	0x1b60	// 1b60 <__unpack_f>
     f58:	9864      	ld.w      	r3, (r14, 0x10)
     f5a:	3b01      	cmphsi      	r3, 2
     f5c:	0c4d      	bf      	0xff6	// ff6 <__mulsf3+0xb6>
     f5e:	9848      	ld.w      	r2, (r14, 0x20)
     f60:	3a01      	cmphsi      	r2, 2
     f62:	0c3d      	bf      	0xfdc	// fdc <__mulsf3+0x9c>
     f64:	3b44      	cmpnei      	r3, 4
     f66:	0c46      	bf      	0xff2	// ff2 <__mulsf3+0xb2>
     f68:	3a44      	cmpnei      	r2, 4
     f6a:	0c37      	bf      	0xfd8	// fd8 <__mulsf3+0x98>
     f6c:	3b42      	cmpnei      	r3, 2
     f6e:	0c44      	bf      	0xff6	// ff6 <__mulsf3+0xb6>
     f70:	3a42      	cmpnei      	r2, 2
     f72:	0c35      	bf      	0xfdc	// fdc <__mulsf3+0x9c>
     f74:	9867      	ld.w      	r3, (r14, 0x1c)
     f76:	b860      	st.w      	r3, (r14, 0x0)
     f78:	986b      	ld.w      	r3, (r14, 0x2c)
     f7a:	6c8f      	mov      	r2, r3
     f7c:	b861      	st.w      	r3, (r14, 0x4)
     f7e:	9800      	ld.w      	r0, (r14, 0x0)
     f80:	3300      	movi      	r3, 0
     f82:	3100      	movi      	r1, 0
     f84:	e0000550 	bsr      	0x1a24	// 1a24 <__muldi3>
     f88:	98c6      	ld.w      	r6, (r14, 0x18)
     f8a:	984a      	ld.w      	r2, (r14, 0x28)
     f8c:	6098      	addu      	r2, r6
     f8e:	5ac6      	addi      	r6, r2, 2
     f90:	b8ce      	st.w      	r6, (r14, 0x38)
     f92:	98e5      	ld.w      	r7, (r14, 0x14)
     f94:	98c9      	ld.w      	r6, (r14, 0x24)
     f96:	659e      	cmpne      	r7, r6
     f98:	3400      	movi      	r4, 0
     f9a:	6111      	addc      	r4, r4
     f9c:	39df      	btsti      	r1, 31
     f9e:	6cc7      	mov      	r3, r1
     fa0:	6d43      	mov      	r5, r0
     fa2:	b88d      	st.w      	r4, (r14, 0x34)
     fa4:	0c3f      	bf      	0x1022	// 1022 <__mulsf3+0xe2>
     fa6:	3301      	movi      	r3, 1
     fa8:	68c4      	and      	r3, r1
     faa:	3b40      	cmpnei      	r3, 0
     fac:	2202      	addi      	r2, 3
     fae:	0811      	bt      	0xfd0	// fd0 <__mulsf3+0x90>
     fb0:	4961      	lsri      	r3, r1, 1
     fb2:	b84e      	st.w      	r2, (r14, 0x38)
     fb4:	317f      	movi      	r1, 127
     fb6:	6c8f      	mov      	r2, r3
     fb8:	6884      	and      	r2, r1
     fba:	3040      	movi      	r0, 64
     fbc:	640a      	cmpne      	r2, r0
     fbe:	0c27      	bf      	0x100c	// 100c <__mulsf3+0xcc>
     fc0:	b86f      	st.w      	r3, (r14, 0x3c)
     fc2:	3303      	movi      	r3, 3
     fc4:	b86c      	st.w      	r3, (r14, 0x30)
     fc6:	180c      	addi      	r0, r14, 48
     fc8:	e0000570 	bsr      	0x1aa8	// 1aa8 <__pack_f>
     fcc:	1410      	addi      	r14, r14, 64
     fce:	1494      	pop      	r4-r7, r15
     fd0:	4801      	lsri      	r0, r0, 1
     fd2:	38bf      	bseti      	r0, 31
     fd4:	6d43      	mov      	r5, r0
     fd6:	07ed      	br      	0xfb0	// fb0 <__mulsf3+0x70>
     fd8:	3b42      	cmpnei      	r3, 2
     fda:	0c22      	bf      	0x101e	// 101e <__mulsf3+0xde>
     fdc:	9869      	ld.w      	r3, (r14, 0x24)
     fde:	9845      	ld.w      	r2, (r14, 0x14)
     fe0:	64ca      	cmpne      	r2, r3
     fe2:	3300      	movi      	r3, 0
     fe4:	60cd      	addc      	r3, r3
     fe6:	1808      	addi      	r0, r14, 32
     fe8:	b869      	st.w      	r3, (r14, 0x24)
     fea:	e000055f 	bsr      	0x1aa8	// 1aa8 <__pack_f>
     fee:	1410      	addi      	r14, r14, 64
     ff0:	1494      	pop      	r4-r7, r15
     ff2:	3a42      	cmpnei      	r2, 2
     ff4:	0c15      	bf      	0x101e	// 101e <__mulsf3+0xde>
     ff6:	9845      	ld.w      	r2, (r14, 0x14)
     ff8:	9869      	ld.w      	r3, (r14, 0x24)
     ffa:	64ca      	cmpne      	r2, r3
     ffc:	3300      	movi      	r3, 0
     ffe:	60cd      	addc      	r3, r3
    1000:	1804      	addi      	r0, r14, 16
    1002:	b865      	st.w      	r3, (r14, 0x14)
    1004:	e0000552 	bsr      	0x1aa8	// 1aa8 <__pack_f>
    1008:	1410      	addi      	r14, r14, 64
    100a:	1494      	pop      	r4-r7, r15
    100c:	3080      	movi      	r0, 128
    100e:	680c      	and      	r0, r3
    1010:	3840      	cmpnei      	r0, 0
    1012:	0bd7      	bt      	0xfc0	// fc0 <__mulsf3+0x80>
    1014:	3d40      	cmpnei      	r5, 0
    1016:	0fd5      	bf      	0xfc0	// fc0 <__mulsf3+0x80>
    1018:	60c8      	addu      	r3, r2
    101a:	68c5      	andn      	r3, r1
    101c:	07d2      	br      	0xfc0	// fc0 <__mulsf3+0x80>
    101e:	100d      	lrw      	r0, 0x960c	// 1050 <__mulsf3+0x110>
    1020:	07d4      	br      	0xfc8	// fc8 <__mulsf3+0x88>
    1022:	108d      	lrw      	r4, 0x3fffffff	// 1054 <__mulsf3+0x114>
    1024:	6450      	cmphs      	r4, r1
    1026:	0fc7      	bf      	0xfb4	// fb4 <__mulsf3+0x74>
    1028:	2200      	addi      	r2, 1
    102a:	3001      	movi      	r0, 1
    102c:	6c53      	mov      	r1, r4
    102e:	0405      	br      	0x1038	// 1038 <__mulsf3+0xf8>
    1030:	64c4      	cmphs      	r1, r3
    1032:	45a1      	lsli      	r5, r5, 1
    1034:	2a00      	subi      	r2, 1
    1036:	0c0a      	bf      	0x104a	// 104a <__mulsf3+0x10a>
    1038:	3ddf      	btsti      	r5, 31
    103a:	6d0b      	mov      	r4, r2
    103c:	4361      	lsli      	r3, r3, 1
    103e:	0ff9      	bf      	0x1030	// 1030 <__mulsf3+0xf0>
    1040:	6cc0      	or      	r3, r0
    1042:	64c4      	cmphs      	r1, r3
    1044:	45a1      	lsli      	r5, r5, 1
    1046:	2a00      	subi      	r2, 1
    1048:	0bf8      	bt      	0x1038	// 1038 <__mulsf3+0xf8>
    104a:	b88e      	st.w      	r4, (r14, 0x38)
    104c:	07b4      	br      	0xfb4	// fb4 <__mulsf3+0x74>
    104e:	0000      	bkpt
    1050:	0000960c 	.long	0x0000960c
    1054:	3fffffff 	.long	0x3fffffff

00001058 <__gesf2>:
    1058:	14d0      	push      	r15
    105a:	142a      	subi      	r14, r14, 40
    105c:	b800      	st.w      	r0, (r14, 0x0)
    105e:	b821      	st.w      	r1, (r14, 0x4)
    1060:	6c3b      	mov      	r0, r14
    1062:	1902      	addi      	r1, r14, 8
    1064:	e000057e 	bsr      	0x1b60	// 1b60 <__unpack_f>
    1068:	1906      	addi      	r1, r14, 24
    106a:	1801      	addi      	r0, r14, 4
    106c:	e000057a 	bsr      	0x1b60	// 1b60 <__unpack_f>
    1070:	9862      	ld.w      	r3, (r14, 0x8)
    1072:	3b01      	cmphsi      	r3, 2
    1074:	0c0a      	bf      	0x1088	// 1088 <__gesf2+0x30>
    1076:	9866      	ld.w      	r3, (r14, 0x18)
    1078:	3b01      	cmphsi      	r3, 2
    107a:	0c07      	bf      	0x1088	// 1088 <__gesf2+0x30>
    107c:	1906      	addi      	r1, r14, 24
    107e:	1802      	addi      	r0, r14, 8
    1080:	e00005b2 	bsr      	0x1be4	// 1be4 <__fpcmp_parts_f>
    1084:	140a      	addi      	r14, r14, 40
    1086:	1490      	pop      	r15
    1088:	3000      	movi      	r0, 0
    108a:	2800      	subi      	r0, 1
    108c:	140a      	addi      	r14, r14, 40
    108e:	1490      	pop      	r15

00001090 <__floatsisf>:
    1090:	14d1      	push      	r4, r15
    1092:	1424      	subi      	r14, r14, 16
    1094:	3303      	movi      	r3, 3
    1096:	b860      	st.w      	r3, (r14, 0x0)
    1098:	3840      	cmpnei      	r0, 0
    109a:	487f      	lsri      	r3, r0, 31
    109c:	b861      	st.w      	r3, (r14, 0x4)
    109e:	0808      	bt      	0x10ae	// 10ae <__floatsisf+0x1e>
    10a0:	3302      	movi      	r3, 2
    10a2:	b860      	st.w      	r3, (r14, 0x0)
    10a4:	6c3b      	mov      	r0, r14
    10a6:	e0000501 	bsr      	0x1aa8	// 1aa8 <__pack_f>
    10aa:	1404      	addi      	r14, r14, 16
    10ac:	1491      	pop      	r4, r15
    10ae:	331e      	movi      	r3, 30
    10b0:	38df      	btsti      	r0, 31
    10b2:	b862      	st.w      	r3, (r14, 0x8)
    10b4:	080f      	bt      	0x10d2	// 10d2 <__floatsisf+0x42>
    10b6:	6d03      	mov      	r4, r0
    10b8:	6c13      	mov      	r0, r4
    10ba:	e00004d7 	bsr      	0x1a68	// 1a68 <__clzsi2>
    10be:	5863      	subi      	r3, r0, 1
    10c0:	3b40      	cmpnei      	r3, 0
    10c2:	0c14      	bf      	0x10ea	// 10ea <__floatsisf+0x5a>
    10c4:	6c13      	mov      	r0, r4
    10c6:	321e      	movi      	r2, 30
    10c8:	700c      	lsl      	r0, r3
    10ca:	5a6d      	subu      	r3, r2, r3
    10cc:	b803      	st.w      	r0, (r14, 0xc)
    10ce:	b862      	st.w      	r3, (r14, 0x8)
    10d0:	07ea      	br      	0x10a4	// 10a4 <__floatsisf+0x14>
    10d2:	3380      	movi      	r3, 128
    10d4:	4378      	lsli      	r3, r3, 24
    10d6:	64c2      	cmpne      	r0, r3
    10d8:	0c0b      	bf      	0x10ee	// 10ee <__floatsisf+0x5e>
    10da:	3400      	movi      	r4, 0
    10dc:	6102      	subu      	r4, r0
    10de:	6c13      	mov      	r0, r4
    10e0:	e00004c4 	bsr      	0x1a68	// 1a68 <__clzsi2>
    10e4:	5863      	subi      	r3, r0, 1
    10e6:	3b40      	cmpnei      	r3, 0
    10e8:	0bee      	bt      	0x10c4	// 10c4 <__floatsisf+0x34>
    10ea:	b883      	st.w      	r4, (r14, 0xc)
    10ec:	07dc      	br      	0x10a4	// 10a4 <__floatsisf+0x14>
    10ee:	30cf      	movi      	r0, 207
    10f0:	4018      	lsli      	r0, r0, 24
    10f2:	07dc      	br      	0x10aa	// 10aa <__floatsisf+0x1a>

000010f4 <__fixsfsi>:
    10f4:	14d0      	push      	r15
    10f6:	1425      	subi      	r14, r14, 20
    10f8:	b800      	st.w      	r0, (r14, 0x0)
    10fa:	1901      	addi      	r1, r14, 4
    10fc:	6c3b      	mov      	r0, r14
    10fe:	e0000531 	bsr      	0x1b60	// 1b60 <__unpack_f>
    1102:	9861      	ld.w      	r3, (r14, 0x4)
    1104:	3b02      	cmphsi      	r3, 3
    1106:	0c1b      	bf      	0x113c	// 113c <__fixsfsi+0x48>
    1108:	3b44      	cmpnei      	r3, 4
    110a:	0c06      	bf      	0x1116	// 1116 <__fixsfsi+0x22>
    110c:	9863      	ld.w      	r3, (r14, 0xc)
    110e:	3bdf      	btsti      	r3, 31
    1110:	0816      	bt      	0x113c	// 113c <__fixsfsi+0x48>
    1112:	3b3e      	cmplti      	r3, 31
    1114:	0809      	bt      	0x1126	// 1126 <__fixsfsi+0x32>
    1116:	9862      	ld.w      	r3, (r14, 0x8)
    1118:	3b40      	cmpnei      	r3, 0
    111a:	3000      	movi      	r0, 0
    111c:	6001      	addc      	r0, r0
    111e:	106a      	lrw      	r3, 0x7fffffff	// 1144 <__fixsfsi+0x50>
    1120:	600c      	addu      	r0, r3
    1122:	1405      	addi      	r14, r14, 20
    1124:	1490      	pop      	r15
    1126:	321e      	movi      	r2, 30
    1128:	5a6d      	subu      	r3, r2, r3
    112a:	9804      	ld.w      	r0, (r14, 0x10)
    112c:	700d      	lsr      	r0, r3
    112e:	9862      	ld.w      	r3, (r14, 0x8)
    1130:	3b40      	cmpnei      	r3, 0
    1132:	0ff8      	bf      	0x1122	// 1122 <__fixsfsi+0x2e>
    1134:	3300      	movi      	r3, 0
    1136:	5b01      	subu      	r0, r3, r0
    1138:	1405      	addi      	r14, r14, 20
    113a:	1490      	pop      	r15
    113c:	3000      	movi      	r0, 0
    113e:	1405      	addi      	r14, r14, 20
    1140:	1490      	pop      	r15
    1142:	0000      	bkpt
    1144:	7fffffff 	.long	0x7fffffff

00001148 <_fpadd_parts>:
    1148:	14c4      	push      	r4-r7
    114a:	142a      	subi      	r14, r14, 40
    114c:	9060      	ld.w      	r3, (r0, 0x0)
    114e:	3b01      	cmphsi      	r3, 2
    1150:	6dcb      	mov      	r7, r2
    1152:	0c67      	bf      	0x1220	// 1220 <_fpadd_parts+0xd8>
    1154:	9140      	ld.w      	r2, (r1, 0x0)
    1156:	3a01      	cmphsi      	r2, 2
    1158:	0c66      	bf      	0x1224	// 1224 <_fpadd_parts+0xdc>
    115a:	3b44      	cmpnei      	r3, 4
    115c:	0cde      	bf      	0x1318	// 1318 <_fpadd_parts+0x1d0>
    115e:	3a44      	cmpnei      	r2, 4
    1160:	0c62      	bf      	0x1224	// 1224 <_fpadd_parts+0xdc>
    1162:	3a42      	cmpnei      	r2, 2
    1164:	0cb7      	bf      	0x12d2	// 12d2 <_fpadd_parts+0x18a>
    1166:	3b42      	cmpnei      	r3, 2
    1168:	0c5e      	bf      	0x1224	// 1224 <_fpadd_parts+0xdc>
    116a:	9043      	ld.w      	r2, (r0, 0xc)
    116c:	9064      	ld.w      	r3, (r0, 0x10)
    116e:	9082      	ld.w      	r4, (r0, 0x8)
    1170:	91a2      	ld.w      	r5, (r1, 0x8)
    1172:	b842      	st.w      	r2, (r14, 0x8)
    1174:	b863      	st.w      	r3, (r14, 0xc)
    1176:	9143      	ld.w      	r2, (r1, 0xc)
    1178:	9164      	ld.w      	r3, (r1, 0x10)
    117a:	b840      	st.w      	r2, (r14, 0x0)
    117c:	b861      	st.w      	r3, (r14, 0x4)
    117e:	5c75      	subu      	r3, r4, r5
    1180:	3bdf      	btsti      	r3, 31
    1182:	6c8f      	mov      	r2, r3
    1184:	08d2      	bt      	0x1328	// 1328 <_fpadd_parts+0x1e0>
    1186:	363f      	movi      	r6, 63
    1188:	6499      	cmplt      	r6, r2
    118a:	0c50      	bf      	0x122a	// 122a <_fpadd_parts+0xe2>
    118c:	6515      	cmplt      	r5, r4
    118e:	0cbf      	bf      	0x130c	// 130c <_fpadd_parts+0x1c4>
    1190:	3200      	movi      	r2, 0
    1192:	3300      	movi      	r3, 0
    1194:	b840      	st.w      	r2, (r14, 0x0)
    1196:	b861      	st.w      	r3, (r14, 0x4)
    1198:	9061      	ld.w      	r3, (r0, 0x4)
    119a:	9141      	ld.w      	r2, (r1, 0x4)
    119c:	648e      	cmpne      	r3, r2
    119e:	0c78      	bf      	0x128e	// 128e <_fpadd_parts+0x146>
    11a0:	3b40      	cmpnei      	r3, 0
    11a2:	0cad      	bf      	0x12fc	// 12fc <_fpadd_parts+0x1b4>
    11a4:	9800      	ld.w      	r0, (r14, 0x0)
    11a6:	9821      	ld.w      	r1, (r14, 0x4)
    11a8:	9842      	ld.w      	r2, (r14, 0x8)
    11aa:	9863      	ld.w      	r3, (r14, 0xc)
    11ac:	6400      	cmphs      	r0, r0
    11ae:	600b      	subc      	r0, r2
    11b0:	604f      	subc      	r1, r3
    11b2:	39df      	btsti      	r1, 31
    11b4:	08bd      	bt      	0x132e	// 132e <_fpadd_parts+0x1e6>
    11b6:	3300      	movi      	r3, 0
    11b8:	b761      	st.w      	r3, (r7, 0x4)
    11ba:	b782      	st.w      	r4, (r7, 0x8)
    11bc:	6c83      	mov      	r2, r0
    11be:	6cc7      	mov      	r3, r1
    11c0:	b703      	st.w      	r0, (r7, 0xc)
    11c2:	b724      	st.w      	r1, (r7, 0x10)
    11c4:	3000      	movi      	r0, 0
    11c6:	3100      	movi      	r1, 0
    11c8:	2800      	subi      	r0, 1
    11ca:	2900      	subi      	r1, 1
    11cc:	6401      	cmplt      	r0, r0
    11ce:	6009      	addc      	r0, r2
    11d0:	604d      	addc      	r1, r3
    11d2:	038f      	lrw      	r4, 0xfffffff	// 1410 <_fpadd_parts+0x2c8>
    11d4:	6450      	cmphs      	r4, r1
    11d6:	0c67      	bf      	0x12a4	// 12a4 <_fpadd_parts+0x15c>
    11d8:	6506      	cmpne      	r1, r4
    11da:	0cfd      	bf      	0x13d4	// 13d4 <_fpadd_parts+0x28c>
    11dc:	3000      	movi      	r0, 0
    11de:	9722      	ld.w      	r1, (r7, 0x8)
    11e0:	2801      	subi      	r0, 2
    11e2:	2900      	subi      	r1, 1
    11e4:	03d4      	lrw      	r6, 0xfffffff	// 1410 <_fpadd_parts+0x2c8>
    11e6:	b802      	st.w      	r0, (r14, 0x8)
    11e8:	b8e0      	st.w      	r7, (r14, 0x0)
    11ea:	0403      	br      	0x11f0	// 11f0 <_fpadd_parts+0xa8>
    11ec:	6596      	cmpne      	r5, r6
    11ee:	0c83      	bf      	0x12f4	// 12f4 <_fpadd_parts+0x1ac>
    11f0:	4301      	lsli      	r0, r3, 1
    11f2:	4a9f      	lsri      	r4, r2, 31
    11f4:	6d00      	or      	r4, r0
    11f6:	42a1      	lsli      	r5, r2, 1
    11f8:	6c97      	mov      	r2, r5
    11fa:	6cd3      	mov      	r3, r4
    11fc:	3500      	movi      	r5, 0
    11fe:	3400      	movi      	r4, 0
    1200:	2c00      	subi      	r4, 1
    1202:	2d00      	subi      	r5, 1
    1204:	6511      	cmplt      	r4, r4
    1206:	6109      	addc      	r4, r2
    1208:	614d      	addc      	r5, r3
    120a:	6558      	cmphs      	r6, r5
    120c:	6c07      	mov      	r0, r1
    120e:	2900      	subi      	r1, 1
    1210:	0bee      	bt      	0x11ec	// 11ec <_fpadd_parts+0xa4>
    1212:	98e0      	ld.w      	r7, (r14, 0x0)
    1214:	b743      	st.w      	r2, (r7, 0xc)
    1216:	b764      	st.w      	r3, (r7, 0x10)
    1218:	3303      	movi      	r3, 3
    121a:	b702      	st.w      	r0, (r7, 0x8)
    121c:	b760      	st.w      	r3, (r7, 0x0)
    121e:	6c1f      	mov      	r0, r7
    1220:	140a      	addi      	r14, r14, 40
    1222:	1484      	pop      	r4-r7
    1224:	6c07      	mov      	r0, r1
    1226:	140a      	addi      	r14, r14, 40
    1228:	1484      	pop      	r4-r7
    122a:	3b20      	cmplti      	r3, 1
    122c:	088c      	bt      	0x1344	// 1344 <_fpadd_parts+0x1fc>
    122e:	3300      	movi      	r3, 0
    1230:	2b1f      	subi      	r3, 32
    1232:	60c8      	addu      	r3, r2
    1234:	3bdf      	btsti      	r3, 31
    1236:	b866      	st.w      	r3, (r14, 0x18)
    1238:	08bb      	bt      	0x13ae	// 13ae <_fpadd_parts+0x266>
    123a:	98a1      	ld.w      	r5, (r14, 0x4)
    123c:	714d      	lsr      	r5, r3
    123e:	b8a4      	st.w      	r5, (r14, 0x10)
    1240:	3500      	movi      	r5, 0
    1242:	b8a5      	st.w      	r5, (r14, 0x14)
    1244:	9866      	ld.w      	r3, (r14, 0x18)
    1246:	3bdf      	btsti      	r3, 31
    1248:	3500      	movi      	r5, 0
    124a:	3600      	movi      	r6, 0
    124c:	08ad      	bt      	0x13a6	// 13a6 <_fpadd_parts+0x25e>
    124e:	3201      	movi      	r2, 1
    1250:	708c      	lsl      	r2, r3
    1252:	6d8b      	mov      	r6, r2
    1254:	3200      	movi      	r2, 0
    1256:	3300      	movi      	r3, 0
    1258:	2a00      	subi      	r2, 1
    125a:	2b00      	subi      	r3, 1
    125c:	6489      	cmplt      	r2, r2
    125e:	6095      	addc      	r2, r5
    1260:	60d9      	addc      	r3, r6
    1262:	98a0      	ld.w      	r5, (r14, 0x0)
    1264:	98c1      	ld.w      	r6, (r14, 0x4)
    1266:	6948      	and      	r5, r2
    1268:	698c      	and      	r6, r3
    126a:	6c97      	mov      	r2, r5
    126c:	6cdb      	mov      	r3, r6
    126e:	6c8c      	or      	r2, r3
    1270:	3a40      	cmpnei      	r2, 0
    1272:	3500      	movi      	r5, 0
    1274:	6155      	addc      	r5, r5
    1276:	6c97      	mov      	r2, r5
    1278:	3300      	movi      	r3, 0
    127a:	98a4      	ld.w      	r5, (r14, 0x10)
    127c:	98c5      	ld.w      	r6, (r14, 0x14)
    127e:	6d48      	or      	r5, r2
    1280:	6d8c      	or      	r6, r3
    1282:	9061      	ld.w      	r3, (r0, 0x4)
    1284:	9141      	ld.w      	r2, (r1, 0x4)
    1286:	648e      	cmpne      	r3, r2
    1288:	b8a0      	st.w      	r5, (r14, 0x0)
    128a:	b8c1      	st.w      	r6, (r14, 0x4)
    128c:	0b8a      	bt      	0x11a0	// 11a0 <_fpadd_parts+0x58>
    128e:	b761      	st.w      	r3, (r7, 0x4)
    1290:	9800      	ld.w      	r0, (r14, 0x0)
    1292:	9821      	ld.w      	r1, (r14, 0x4)
    1294:	9842      	ld.w      	r2, (r14, 0x8)
    1296:	9863      	ld.w      	r3, (r14, 0xc)
    1298:	6489      	cmplt      	r2, r2
    129a:	6081      	addc      	r2, r0
    129c:	60c5      	addc      	r3, r1
    129e:	b782      	st.w      	r4, (r7, 0x8)
    12a0:	b743      	st.w      	r2, (r7, 0xc)
    12a2:	b764      	st.w      	r3, (r7, 0x10)
    12a4:	3103      	movi      	r1, 3
    12a6:	b720      	st.w      	r1, (r7, 0x0)
    12a8:	123b      	lrw      	r1, 0x1fffffff	// 1414 <_fpadd_parts+0x2cc>
    12aa:	64c4      	cmphs      	r1, r3
    12ac:	0810      	bt      	0x12cc	// 12cc <_fpadd_parts+0x184>
    12ae:	439f      	lsli      	r4, r3, 31
    12b0:	4a01      	lsri      	r0, r2, 1
    12b2:	6c10      	or      	r0, r4
    12b4:	3500      	movi      	r5, 0
    12b6:	3401      	movi      	r4, 1
    12b8:	4b21      	lsri      	r1, r3, 1
    12ba:	6890      	and      	r2, r4
    12bc:	68d4      	and      	r3, r5
    12be:	6c80      	or      	r2, r0
    12c0:	6cc4      	or      	r3, r1
    12c2:	b743      	st.w      	r2, (r7, 0xc)
    12c4:	b764      	st.w      	r3, (r7, 0x10)
    12c6:	9762      	ld.w      	r3, (r7, 0x8)
    12c8:	2300      	addi      	r3, 1
    12ca:	b762      	st.w      	r3, (r7, 0x8)
    12cc:	6c1f      	mov      	r0, r7
    12ce:	140a      	addi      	r14, r14, 40
    12d0:	1484      	pop      	r4-r7
    12d2:	3b42      	cmpnei      	r3, 2
    12d4:	0ba6      	bt      	0x1220	// 1220 <_fpadd_parts+0xd8>
    12d6:	b760      	st.w      	r3, (r7, 0x0)
    12d8:	9061      	ld.w      	r3, (r0, 0x4)
    12da:	b761      	st.w      	r3, (r7, 0x4)
    12dc:	9062      	ld.w      	r3, (r0, 0x8)
    12de:	b762      	st.w      	r3, (r7, 0x8)
    12e0:	9063      	ld.w      	r3, (r0, 0xc)
    12e2:	b763      	st.w      	r3, (r7, 0xc)
    12e4:	9064      	ld.w      	r3, (r0, 0x10)
    12e6:	9141      	ld.w      	r2, (r1, 0x4)
    12e8:	b764      	st.w      	r3, (r7, 0x10)
    12ea:	9061      	ld.w      	r3, (r0, 0x4)
    12ec:	68c8      	and      	r3, r2
    12ee:	b761      	st.w      	r3, (r7, 0x4)
    12f0:	6c1f      	mov      	r0, r7
    12f2:	0797      	br      	0x1220	// 1220 <_fpadd_parts+0xd8>
    12f4:	98e2      	ld.w      	r7, (r14, 0x8)
    12f6:	651c      	cmphs      	r7, r4
    12f8:	0b7c      	bt      	0x11f0	// 11f0 <_fpadd_parts+0xa8>
    12fa:	078c      	br      	0x1212	// 1212 <_fpadd_parts+0xca>
    12fc:	9802      	ld.w      	r0, (r14, 0x8)
    12fe:	9823      	ld.w      	r1, (r14, 0xc)
    1300:	9840      	ld.w      	r2, (r14, 0x0)
    1302:	9861      	ld.w      	r3, (r14, 0x4)
    1304:	6400      	cmphs      	r0, r0
    1306:	600b      	subc      	r0, r2
    1308:	604f      	subc      	r1, r3
    130a:	0754      	br      	0x11b2	// 11b2 <_fpadd_parts+0x6a>
    130c:	3200      	movi      	r2, 0
    130e:	3300      	movi      	r3, 0
    1310:	6d17      	mov      	r4, r5
    1312:	b842      	st.w      	r2, (r14, 0x8)
    1314:	b863      	st.w      	r3, (r14, 0xc)
    1316:	0741      	br      	0x1198	// 1198 <_fpadd_parts+0x50>
    1318:	3a44      	cmpnei      	r2, 4
    131a:	0b83      	bt      	0x1220	// 1220 <_fpadd_parts+0xd8>
    131c:	9041      	ld.w      	r2, (r0, 0x4)
    131e:	9161      	ld.w      	r3, (r1, 0x4)
    1320:	64ca      	cmpne      	r2, r3
    1322:	0f7f      	bf      	0x1220	// 1220 <_fpadd_parts+0xd8>
    1324:	111d      	lrw      	r0, 0x961c	// 1418 <_fpadd_parts+0x2d0>
    1326:	077d      	br      	0x1220	// 1220 <_fpadd_parts+0xd8>
    1328:	3200      	movi      	r2, 0
    132a:	608e      	subu      	r2, r3
    132c:	072d      	br      	0x1186	// 1186 <_fpadd_parts+0x3e>
    132e:	3301      	movi      	r3, 1
    1330:	b761      	st.w      	r3, (r7, 0x4)
    1332:	3200      	movi      	r2, 0
    1334:	3300      	movi      	r3, 0
    1336:	6488      	cmphs      	r2, r2
    1338:	6083      	subc      	r2, r0
    133a:	60c7      	subc      	r3, r1
    133c:	b782      	st.w      	r4, (r7, 0x8)
    133e:	b743      	st.w      	r2, (r7, 0xc)
    1340:	b764      	st.w      	r3, (r7, 0x10)
    1342:	0741      	br      	0x11c4	// 11c4 <_fpadd_parts+0x7c>
    1344:	3b40      	cmpnei      	r3, 0
    1346:	0f29      	bf      	0x1198	// 1198 <_fpadd_parts+0x50>
    1348:	3300      	movi      	r3, 0
    134a:	2b1f      	subi      	r3, 32
    134c:	60c8      	addu      	r3, r2
    134e:	3bdf      	btsti      	r3, 31
    1350:	6108      	addu      	r4, r2
    1352:	b866      	st.w      	r3, (r14, 0x18)
    1354:	0849      	bt      	0x13e6	// 13e6 <_fpadd_parts+0x29e>
    1356:	9863      	ld.w      	r3, (r14, 0xc)
    1358:	98a6      	ld.w      	r5, (r14, 0x18)
    135a:	70d5      	lsr      	r3, r5
    135c:	b864      	st.w      	r3, (r14, 0x10)
    135e:	3300      	movi      	r3, 0
    1360:	b865      	st.w      	r3, (r14, 0x14)
    1362:	9866      	ld.w      	r3, (r14, 0x18)
    1364:	3bdf      	btsti      	r3, 31
    1366:	3500      	movi      	r5, 0
    1368:	3600      	movi      	r6, 0
    136a:	083a      	bt      	0x13de	// 13de <_fpadd_parts+0x296>
    136c:	3201      	movi      	r2, 1
    136e:	708c      	lsl      	r2, r3
    1370:	6d8b      	mov      	r6, r2
    1372:	3200      	movi      	r2, 0
    1374:	3300      	movi      	r3, 0
    1376:	2a00      	subi      	r2, 1
    1378:	2b00      	subi      	r3, 1
    137a:	6489      	cmplt      	r2, r2
    137c:	6095      	addc      	r2, r5
    137e:	60d9      	addc      	r3, r6
    1380:	98a2      	ld.w      	r5, (r14, 0x8)
    1382:	98c3      	ld.w      	r6, (r14, 0xc)
    1384:	6948      	and      	r5, r2
    1386:	698c      	and      	r6, r3
    1388:	6c97      	mov      	r2, r5
    138a:	6cdb      	mov      	r3, r6
    138c:	6c8c      	or      	r2, r3
    138e:	3a40      	cmpnei      	r2, 0
    1390:	3500      	movi      	r5, 0
    1392:	6155      	addc      	r5, r5
    1394:	6c97      	mov      	r2, r5
    1396:	3300      	movi      	r3, 0
    1398:	98a4      	ld.w      	r5, (r14, 0x10)
    139a:	98c5      	ld.w      	r6, (r14, 0x14)
    139c:	6d48      	or      	r5, r2
    139e:	6d8c      	or      	r6, r3
    13a0:	b8a2      	st.w      	r5, (r14, 0x8)
    13a2:	b8c3      	st.w      	r6, (r14, 0xc)
    13a4:	06fa      	br      	0x1198	// 1198 <_fpadd_parts+0x50>
    13a6:	3301      	movi      	r3, 1
    13a8:	70c8      	lsl      	r3, r2
    13aa:	6d4f      	mov      	r5, r3
    13ac:	0754      	br      	0x1254	// 1254 <_fpadd_parts+0x10c>
    13ae:	9861      	ld.w      	r3, (r14, 0x4)
    13b0:	361f      	movi      	r6, 31
    13b2:	43a1      	lsli      	r5, r3, 1
    13b4:	618a      	subu      	r6, r2
    13b6:	7158      	lsl      	r5, r6
    13b8:	b8a9      	st.w      	r5, (r14, 0x24)
    13ba:	98a0      	ld.w      	r5, (r14, 0x0)
    13bc:	98c1      	ld.w      	r6, (r14, 0x4)
    13be:	b8a7      	st.w      	r5, (r14, 0x1c)
    13c0:	b8c8      	st.w      	r6, (r14, 0x20)
    13c2:	9867      	ld.w      	r3, (r14, 0x1c)
    13c4:	70c9      	lsr      	r3, r2
    13c6:	98a9      	ld.w      	r5, (r14, 0x24)
    13c8:	6cd4      	or      	r3, r5
    13ca:	b864      	st.w      	r3, (r14, 0x10)
    13cc:	9868      	ld.w      	r3, (r14, 0x20)
    13ce:	70c9      	lsr      	r3, r2
    13d0:	b865      	st.w      	r3, (r14, 0x14)
    13d2:	0739      	br      	0x1244	// 1244 <_fpadd_parts+0xfc>
    13d4:	3100      	movi      	r1, 0
    13d6:	2901      	subi      	r1, 2
    13d8:	6404      	cmphs      	r1, r0
    13da:	0b01      	bt      	0x11dc	// 11dc <_fpadd_parts+0x94>
    13dc:	0764      	br      	0x12a4	// 12a4 <_fpadd_parts+0x15c>
    13de:	3301      	movi      	r3, 1
    13e0:	70c8      	lsl      	r3, r2
    13e2:	6d4f      	mov      	r5, r3
    13e4:	07c7      	br      	0x1372	// 1372 <_fpadd_parts+0x22a>
    13e6:	9863      	ld.w      	r3, (r14, 0xc)
    13e8:	43c1      	lsli      	r6, r3, 1
    13ea:	351f      	movi      	r5, 31
    13ec:	5d69      	subu      	r3, r5, r2
    13ee:	6d5b      	mov      	r5, r6
    13f0:	714c      	lsl      	r5, r3
    13f2:	b8a9      	st.w      	r5, (r14, 0x24)
    13f4:	98a2      	ld.w      	r5, (r14, 0x8)
    13f6:	98c3      	ld.w      	r6, (r14, 0xc)
    13f8:	b8a7      	st.w      	r5, (r14, 0x1c)
    13fa:	b8c8      	st.w      	r6, (r14, 0x20)
    13fc:	9867      	ld.w      	r3, (r14, 0x1c)
    13fe:	70c9      	lsr      	r3, r2
    1400:	98a9      	ld.w      	r5, (r14, 0x24)
    1402:	6cd4      	or      	r3, r5
    1404:	b864      	st.w      	r3, (r14, 0x10)
    1406:	9868      	ld.w      	r3, (r14, 0x20)
    1408:	70c9      	lsr      	r3, r2
    140a:	b865      	st.w      	r3, (r14, 0x14)
    140c:	07ab      	br      	0x1362	// 1362 <_fpadd_parts+0x21a>
    140e:	0000      	bkpt
    1410:	0fffffff 	.long	0x0fffffff
    1414:	1fffffff 	.long	0x1fffffff
    1418:	0000961c 	.long	0x0000961c

0000141c <__adddf3>:
    141c:	14d0      	push      	r15
    141e:	1433      	subi      	r14, r14, 76
    1420:	b800      	st.w      	r0, (r14, 0x0)
    1422:	b821      	st.w      	r1, (r14, 0x4)
    1424:	6c3b      	mov      	r0, r14
    1426:	1904      	addi      	r1, r14, 16
    1428:	b863      	st.w      	r3, (r14, 0xc)
    142a:	b842      	st.w      	r2, (r14, 0x8)
    142c:	e00004f2 	bsr      	0x1e10	// 1e10 <__unpack_d>
    1430:	1909      	addi      	r1, r14, 36
    1432:	1802      	addi      	r0, r14, 8
    1434:	e00004ee 	bsr      	0x1e10	// 1e10 <__unpack_d>
    1438:	1a0e      	addi      	r2, r14, 56
    143a:	1909      	addi      	r1, r14, 36
    143c:	1804      	addi      	r0, r14, 16
    143e:	e3fffe85 	bsr      	0x1148	// 1148 <_fpadd_parts>
    1442:	e0000419 	bsr      	0x1c74	// 1c74 <__pack_d>
    1446:	1413      	addi      	r14, r14, 76
    1448:	1490      	pop      	r15
	...

0000144c <__subdf3>:
    144c:	14d0      	push      	r15
    144e:	1433      	subi      	r14, r14, 76
    1450:	b800      	st.w      	r0, (r14, 0x0)
    1452:	b821      	st.w      	r1, (r14, 0x4)
    1454:	6c3b      	mov      	r0, r14
    1456:	1904      	addi      	r1, r14, 16
    1458:	b842      	st.w      	r2, (r14, 0x8)
    145a:	b863      	st.w      	r3, (r14, 0xc)
    145c:	e00004da 	bsr      	0x1e10	// 1e10 <__unpack_d>
    1460:	1909      	addi      	r1, r14, 36
    1462:	1802      	addi      	r0, r14, 8
    1464:	e00004d6 	bsr      	0x1e10	// 1e10 <__unpack_d>
    1468:	986a      	ld.w      	r3, (r14, 0x28)
    146a:	3201      	movi      	r2, 1
    146c:	6cc9      	xor      	r3, r2
    146e:	1909      	addi      	r1, r14, 36
    1470:	1a0e      	addi      	r2, r14, 56
    1472:	1804      	addi      	r0, r14, 16
    1474:	b86a      	st.w      	r3, (r14, 0x28)
    1476:	e3fffe69 	bsr      	0x1148	// 1148 <_fpadd_parts>
    147a:	e00003fd 	bsr      	0x1c74	// 1c74 <__pack_d>
    147e:	1413      	addi      	r14, r14, 76
    1480:	1490      	pop      	r15
	...

00001484 <__muldf3>:
    1484:	14d4      	push      	r4-r7, r15
    1486:	143b      	subi      	r14, r14, 108
    1488:	b808      	st.w      	r0, (r14, 0x20)
    148a:	b829      	st.w      	r1, (r14, 0x24)
    148c:	1808      	addi      	r0, r14, 32
    148e:	190c      	addi      	r1, r14, 48
    1490:	b86b      	st.w      	r3, (r14, 0x2c)
    1492:	b84a      	st.w      	r2, (r14, 0x28)
    1494:	e00004be 	bsr      	0x1e10	// 1e10 <__unpack_d>
    1498:	1911      	addi      	r1, r14, 68
    149a:	180a      	addi      	r0, r14, 40
    149c:	e00004ba 	bsr      	0x1e10	// 1e10 <__unpack_d>
    14a0:	986c      	ld.w      	r3, (r14, 0x30)
    14a2:	3b01      	cmphsi      	r3, 2
    14a4:	0cac      	bf      	0x15fc	// 15fc <__muldf3+0x178>
    14a6:	9851      	ld.w      	r2, (r14, 0x44)
    14a8:	3a01      	cmphsi      	r2, 2
    14aa:	0c9c      	bf      	0x15e2	// 15e2 <__muldf3+0x15e>
    14ac:	3b44      	cmpnei      	r3, 4
    14ae:	0ca5      	bf      	0x15f8	// 15f8 <__muldf3+0x174>
    14b0:	3a44      	cmpnei      	r2, 4
    14b2:	0c96      	bf      	0x15de	// 15de <__muldf3+0x15a>
    14b4:	3b42      	cmpnei      	r3, 2
    14b6:	0ca3      	bf      	0x15fc	// 15fc <__muldf3+0x178>
    14b8:	3a42      	cmpnei      	r2, 2
    14ba:	0c94      	bf      	0x15e2	// 15e2 <__muldf3+0x15e>
    14bc:	98ef      	ld.w      	r7, (r14, 0x3c)
    14be:	98b4      	ld.w      	r5, (r14, 0x50)
    14c0:	9875      	ld.w      	r3, (r14, 0x54)
    14c2:	6d8f      	mov      	r6, r3
    14c4:	6c9f      	mov      	r2, r7
    14c6:	3300      	movi      	r3, 0
    14c8:	6c17      	mov      	r0, r5
    14ca:	3100      	movi      	r1, 0
    14cc:	e00002ac 	bsr      	0x1a24	// 1a24 <__muldi3>
    14d0:	b804      	st.w      	r0, (r14, 0x10)
    14d2:	b825      	st.w      	r1, (r14, 0x14)
    14d4:	6c9f      	mov      	r2, r7
    14d6:	3300      	movi      	r3, 0
    14d8:	6c1b      	mov      	r0, r6
    14da:	3100      	movi      	r1, 0
    14dc:	9890      	ld.w      	r4, (r14, 0x40)
    14de:	b8c2      	st.w      	r6, (r14, 0x8)
    14e0:	e00002a2 	bsr      	0x1a24	// 1a24 <__muldi3>
    14e4:	6d83      	mov      	r6, r0
    14e6:	6dc7      	mov      	r7, r1
    14e8:	9842      	ld.w      	r2, (r14, 0x8)
    14ea:	3300      	movi      	r3, 0
    14ec:	6c13      	mov      	r0, r4
    14ee:	3100      	movi      	r1, 0
    14f0:	e000029a 	bsr      	0x1a24	// 1a24 <__muldi3>
    14f4:	b806      	st.w      	r0, (r14, 0x18)
    14f6:	b827      	st.w      	r1, (r14, 0x1c)
    14f8:	6c97      	mov      	r2, r5
    14fa:	3300      	movi      	r3, 0
    14fc:	6c13      	mov      	r0, r4
    14fe:	3100      	movi      	r1, 0
    1500:	e0000292 	bsr      	0x1a24	// 1a24 <__muldi3>
    1504:	6401      	cmplt      	r0, r0
    1506:	6019      	addc      	r0, r6
    1508:	605d      	addc      	r1, r7
    150a:	65c4      	cmphs      	r1, r7
    150c:	0c91      	bf      	0x162e	// 162e <__muldf3+0x1aa>
    150e:	645e      	cmpne      	r7, r1
    1510:	0c8d      	bf      	0x162a	// 162a <__muldf3+0x1a6>
    1512:	3300      	movi      	r3, 0
    1514:	3400      	movi      	r4, 0
    1516:	b862      	st.w      	r3, (r14, 0x8)
    1518:	b883      	st.w      	r4, (r14, 0xc)
    151a:	9884      	ld.w      	r4, (r14, 0x10)
    151c:	98a5      	ld.w      	r5, (r14, 0x14)
    151e:	3600      	movi      	r6, 0
    1520:	6dc3      	mov      	r7, r0
    1522:	6c93      	mov      	r2, r4
    1524:	6cd7      	mov      	r3, r5
    1526:	6489      	cmplt      	r2, r2
    1528:	6099      	addc      	r2, r6
    152a:	60dd      	addc      	r3, r7
    152c:	6d8b      	mov      	r6, r2
    152e:	6dcf      	mov      	r7, r3
    1530:	6c93      	mov      	r2, r4
    1532:	6cd7      	mov      	r3, r5
    1534:	64dc      	cmphs      	r7, r3
    1536:	0c70      	bf      	0x1616	// 1616 <__muldf3+0x192>
    1538:	65ce      	cmpne      	r3, r7
    153a:	0c6c      	bf      	0x1612	// 1612 <__muldf3+0x18e>
    153c:	6c87      	mov      	r2, r1
    153e:	3300      	movi      	r3, 0
    1540:	9806      	ld.w      	r0, (r14, 0x18)
    1542:	9827      	ld.w      	r1, (r14, 0x1c)
    1544:	6401      	cmplt      	r0, r0
    1546:	6009      	addc      	r0, r2
    1548:	604d      	addc      	r1, r3
    154a:	6c83      	mov      	r2, r0
    154c:	6cc7      	mov      	r3, r1
    154e:	9802      	ld.w      	r0, (r14, 0x8)
    1550:	9823      	ld.w      	r1, (r14, 0xc)
    1552:	6401      	cmplt      	r0, r0
    1554:	6009      	addc      	r0, r2
    1556:	604d      	addc      	r1, r3
    1558:	6c83      	mov      	r2, r0
    155a:	6cc7      	mov      	r3, r1
    155c:	988e      	ld.w      	r4, (r14, 0x38)
    155e:	9833      	ld.w      	r1, (r14, 0x4c)
    1560:	6104      	addu      	r4, r1
    1562:	5c2e      	addi      	r1, r4, 4
    1564:	b838      	st.w      	r1, (r14, 0x60)
    1566:	980d      	ld.w      	r0, (r14, 0x34)
    1568:	9832      	ld.w      	r1, (r14, 0x48)
    156a:	6442      	cmpne      	r0, r1
    156c:	12b0      	lrw      	r5, 0x1fffffff	// 16ac <__muldf3+0x228>
    156e:	3100      	movi      	r1, 0
    1570:	6045      	addc      	r1, r1
    1572:	64d4      	cmphs      	r5, r3
    1574:	b837      	st.w      	r1, (r14, 0x5c)
    1576:	0879      	bt      	0x1668	// 1668 <__muldf3+0x1e4>
    1578:	2404      	addi      	r4, 5
    157a:	b8a4      	st.w      	r5, (r14, 0x10)
    157c:	3001      	movi      	r0, 1
    157e:	3100      	movi      	r1, 0
    1580:	6808      	and      	r0, r2
    1582:	684c      	and      	r1, r3
    1584:	6c04      	or      	r0, r1
    1586:	3840      	cmpnei      	r0, 0
    1588:	b882      	st.w      	r4, (r14, 0x8)
    158a:	0c0e      	bf      	0x15a6	// 15a6 <__muldf3+0x122>
    158c:	473f      	lsli      	r1, r7, 31
    158e:	4e01      	lsri      	r0, r6, 1
    1590:	6c04      	or      	r0, r1
    1592:	4f21      	lsri      	r1, r7, 1
    1594:	b800      	st.w      	r0, (r14, 0x0)
    1596:	b821      	st.w      	r1, (r14, 0x4)
    1598:	3180      	movi      	r1, 128
    159a:	98c0      	ld.w      	r6, (r14, 0x0)
    159c:	98e1      	ld.w      	r7, (r14, 0x4)
    159e:	3000      	movi      	r0, 0
    15a0:	4138      	lsli      	r1, r1, 24
    15a2:	6d80      	or      	r6, r0
    15a4:	6dc4      	or      	r7, r1
    15a6:	4b21      	lsri      	r1, r3, 1
    15a8:	43bf      	lsli      	r5, r3, 31
    15aa:	4a01      	lsri      	r0, r2, 1
    15ac:	6cc7      	mov      	r3, r1
    15ae:	9824      	ld.w      	r1, (r14, 0x10)
    15b0:	6d40      	or      	r5, r0
    15b2:	64c4      	cmphs      	r1, r3
    15b4:	6c97      	mov      	r2, r5
    15b6:	2400      	addi      	r4, 1
    15b8:	0fe2      	bf      	0x157c	// 157c <__muldf3+0xf8>
    15ba:	9822      	ld.w      	r1, (r14, 0x8)
    15bc:	b838      	st.w      	r1, (r14, 0x60)
    15be:	30ff      	movi      	r0, 255
    15c0:	3100      	movi      	r1, 0
    15c2:	6808      	and      	r0, r2
    15c4:	684c      	and      	r1, r3
    15c6:	3480      	movi      	r4, 128
    15c8:	6502      	cmpne      	r0, r4
    15ca:	0c37      	bf      	0x1638	// 1638 <__muldf3+0x1b4>
    15cc:	b859      	st.w      	r2, (r14, 0x64)
    15ce:	b87a      	st.w      	r3, (r14, 0x68)
    15d0:	3303      	movi      	r3, 3
    15d2:	b876      	st.w      	r3, (r14, 0x58)
    15d4:	1816      	addi      	r0, r14, 88
    15d6:	e000034f 	bsr      	0x1c74	// 1c74 <__pack_d>
    15da:	141b      	addi      	r14, r14, 108
    15dc:	1494      	pop      	r4-r7, r15
    15de:	3b42      	cmpnei      	r3, 2
    15e0:	0c42      	bf      	0x1664	// 1664 <__muldf3+0x1e0>
    15e2:	9872      	ld.w      	r3, (r14, 0x48)
    15e4:	984d      	ld.w      	r2, (r14, 0x34)
    15e6:	64ca      	cmpne      	r2, r3
    15e8:	3300      	movi      	r3, 0
    15ea:	60cd      	addc      	r3, r3
    15ec:	1811      	addi      	r0, r14, 68
    15ee:	b872      	st.w      	r3, (r14, 0x48)
    15f0:	e0000342 	bsr      	0x1c74	// 1c74 <__pack_d>
    15f4:	141b      	addi      	r14, r14, 108
    15f6:	1494      	pop      	r4-r7, r15
    15f8:	3a42      	cmpnei      	r2, 2
    15fa:	0c35      	bf      	0x1664	// 1664 <__muldf3+0x1e0>
    15fc:	984d      	ld.w      	r2, (r14, 0x34)
    15fe:	9872      	ld.w      	r3, (r14, 0x48)
    1600:	64ca      	cmpne      	r2, r3
    1602:	3300      	movi      	r3, 0
    1604:	60cd      	addc      	r3, r3
    1606:	180c      	addi      	r0, r14, 48
    1608:	b86d      	st.w      	r3, (r14, 0x34)
    160a:	e0000335 	bsr      	0x1c74	// 1c74 <__pack_d>
    160e:	141b      	addi      	r14, r14, 108
    1610:	1494      	pop      	r4-r7, r15
    1612:	6498      	cmphs      	r6, r2
    1614:	0b94      	bt      	0x153c	// 153c <__muldf3+0xb8>
    1616:	9882      	ld.w      	r4, (r14, 0x8)
    1618:	98a3      	ld.w      	r5, (r14, 0xc)
    161a:	3201      	movi      	r2, 1
    161c:	3300      	movi      	r3, 0
    161e:	6511      	cmplt      	r4, r4
    1620:	6109      	addc      	r4, r2
    1622:	614d      	addc      	r5, r3
    1624:	b882      	st.w      	r4, (r14, 0x8)
    1626:	b8a3      	st.w      	r5, (r14, 0xc)
    1628:	078a      	br      	0x153c	// 153c <__muldf3+0xb8>
    162a:	6580      	cmphs      	r0, r6
    162c:	0b73      	bt      	0x1512	// 1512 <__muldf3+0x8e>
    162e:	3300      	movi      	r3, 0
    1630:	3401      	movi      	r4, 1
    1632:	b862      	st.w      	r3, (r14, 0x8)
    1634:	b883      	st.w      	r4, (r14, 0xc)
    1636:	0772      	br      	0x151a	// 151a <__muldf3+0x96>
    1638:	3940      	cmpnei      	r1, 0
    163a:	0bc9      	bt      	0x15cc	// 15cc <__muldf3+0x148>
    163c:	3180      	movi      	r1, 128
    163e:	4121      	lsli      	r1, r1, 1
    1640:	6848      	and      	r1, r2
    1642:	3940      	cmpnei      	r1, 0
    1644:	0bc4      	bt      	0x15cc	// 15cc <__muldf3+0x148>
    1646:	6c5b      	mov      	r1, r6
    1648:	6c5c      	or      	r1, r7
    164a:	3940      	cmpnei      	r1, 0
    164c:	0fc0      	bf      	0x15cc	// 15cc <__muldf3+0x148>
    164e:	3080      	movi      	r0, 128
    1650:	3100      	movi      	r1, 0
    1652:	6401      	cmplt      	r0, r0
    1654:	6009      	addc      	r0, r2
    1656:	604d      	addc      	r1, r3
    1658:	34ff      	movi      	r4, 255
    165a:	6d43      	mov      	r5, r0
    165c:	6951      	andn      	r5, r4
    165e:	6c97      	mov      	r2, r5
    1660:	6cc7      	mov      	r3, r1
    1662:	07b5      	br      	0x15cc	// 15cc <__muldf3+0x148>
    1664:	1013      	lrw      	r0, 0x961c	// 16b0 <__muldf3+0x22c>
    1666:	07b8      	br      	0x15d6	// 15d6 <__muldf3+0x152>
    1668:	1033      	lrw      	r1, 0xfffffff	// 16b4 <__muldf3+0x230>
    166a:	64c4      	cmphs      	r1, r3
    166c:	0fa9      	bf      	0x15be	// 15be <__muldf3+0x13a>
    166e:	2402      	addi      	r4, 3
    1670:	b822      	st.w      	r1, (r14, 0x8)
    1672:	4a1f      	lsri      	r0, r2, 31
    1674:	4321      	lsli      	r1, r3, 1
    1676:	42a1      	lsli      	r5, r2, 1
    1678:	6c04      	or      	r0, r1
    167a:	3fdf      	btsti      	r7, 31
    167c:	b880      	st.w      	r4, (r14, 0x0)
    167e:	6c97      	mov      	r2, r5
    1680:	6cc3      	mov      	r3, r0
    1682:	0c07      	bf      	0x1690	// 1690 <__muldf3+0x20c>
    1684:	3001      	movi      	r0, 1
    1686:	3100      	movi      	r1, 0
    1688:	6c08      	or      	r0, r2
    168a:	6c4c      	or      	r1, r3
    168c:	6c83      	mov      	r2, r0
    168e:	6cc7      	mov      	r3, r1
    1690:	4721      	lsli      	r1, r7, 1
    1692:	4e1f      	lsri      	r0, r6, 31
    1694:	6c04      	or      	r0, r1
    1696:	9822      	ld.w      	r1, (r14, 0x8)
    1698:	46a1      	lsli      	r5, r6, 1
    169a:	64c4      	cmphs      	r1, r3
    169c:	6d97      	mov      	r6, r5
    169e:	6dc3      	mov      	r7, r0
    16a0:	2c00      	subi      	r4, 1
    16a2:	0be8      	bt      	0x1672	// 1672 <__muldf3+0x1ee>
    16a4:	9820      	ld.w      	r1, (r14, 0x0)
    16a6:	b838      	st.w      	r1, (r14, 0x60)
    16a8:	078b      	br      	0x15be	// 15be <__muldf3+0x13a>
    16aa:	0000      	bkpt
    16ac:	1fffffff 	.long	0x1fffffff
    16b0:	0000961c 	.long	0x0000961c
    16b4:	0fffffff 	.long	0x0fffffff

000016b8 <__divdf3>:
    16b8:	14d4      	push      	r4-r7, r15
    16ba:	1432      	subi      	r14, r14, 72
    16bc:	b804      	st.w      	r0, (r14, 0x10)
    16be:	b825      	st.w      	r1, (r14, 0x14)
    16c0:	1804      	addi      	r0, r14, 16
    16c2:	1908      	addi      	r1, r14, 32
    16c4:	b867      	st.w      	r3, (r14, 0x1c)
    16c6:	b846      	st.w      	r2, (r14, 0x18)
    16c8:	e00003a4 	bsr      	0x1e10	// 1e10 <__unpack_d>
    16cc:	190d      	addi      	r1, r14, 52
    16ce:	1806      	addi      	r0, r14, 24
    16d0:	e00003a0 	bsr      	0x1e10	// 1e10 <__unpack_d>
    16d4:	9868      	ld.w      	r3, (r14, 0x20)
    16d6:	3b01      	cmphsi      	r3, 2
    16d8:	0c66      	bf      	0x17a4	// 17a4 <__divdf3+0xec>
    16da:	982d      	ld.w      	r1, (r14, 0x34)
    16dc:	3901      	cmphsi      	r1, 2
    16de:	0c92      	bf      	0x1802	// 1802 <__divdf3+0x14a>
    16e0:	9849      	ld.w      	r2, (r14, 0x24)
    16e2:	980e      	ld.w      	r0, (r14, 0x38)
    16e4:	6c81      	xor      	r2, r0
    16e6:	3b44      	cmpnei      	r3, 4
    16e8:	b849      	st.w      	r2, (r14, 0x24)
    16ea:	0c62      	bf      	0x17ae	// 17ae <__divdf3+0xf6>
    16ec:	3b42      	cmpnei      	r3, 2
    16ee:	0c60      	bf      	0x17ae	// 17ae <__divdf3+0xf6>
    16f0:	3944      	cmpnei      	r1, 4
    16f2:	0c62      	bf      	0x17b6	// 17b6 <__divdf3+0xfe>
    16f4:	3942      	cmpnei      	r1, 2
    16f6:	0c82      	bf      	0x17fa	// 17fa <__divdf3+0x142>
    16f8:	982a      	ld.w      	r1, (r14, 0x28)
    16fa:	986f      	ld.w      	r3, (r14, 0x3c)
    16fc:	604e      	subu      	r1, r3
    16fe:	9890      	ld.w      	r4, (r14, 0x40)
    1700:	98b1      	ld.w      	r5, (r14, 0x44)
    1702:	984b      	ld.w      	r2, (r14, 0x2c)
    1704:	986c      	ld.w      	r3, (r14, 0x30)
    1706:	654c      	cmphs      	r3, r5
    1708:	b82a      	st.w      	r1, (r14, 0x28)
    170a:	6d93      	mov      	r6, r4
    170c:	6dd7      	mov      	r7, r5
    170e:	0c05      	bf      	0x1718	// 1718 <__divdf3+0x60>
    1710:	64d6      	cmpne      	r5, r3
    1712:	080b      	bt      	0x1728	// 1728 <__divdf3+0x70>
    1714:	6508      	cmphs      	r2, r4
    1716:	0809      	bt      	0x1728	// 1728 <__divdf3+0x70>
    1718:	4a9f      	lsri      	r4, r2, 31
    171a:	4301      	lsli      	r0, r3, 1
    171c:	42a1      	lsli      	r5, r2, 1
    171e:	6d00      	or      	r4, r0
    1720:	2900      	subi      	r1, 1
    1722:	6c97      	mov      	r2, r5
    1724:	6cd3      	mov      	r3, r4
    1726:	b82a      	st.w      	r1, (r14, 0x28)
    1728:	3000      	movi      	r0, 0
    172a:	3100      	movi      	r1, 0
    172c:	b802      	st.w      	r0, (r14, 0x8)
    172e:	b823      	st.w      	r1, (r14, 0xc)
    1730:	3180      	movi      	r1, 128
    1732:	343d      	movi      	r4, 61
    1734:	3000      	movi      	r0, 0
    1736:	4135      	lsli      	r1, r1, 21
    1738:	b8c0      	st.w      	r6, (r14, 0x0)
    173a:	b8e1      	st.w      	r7, (r14, 0x4)
    173c:	98a0      	ld.w      	r5, (r14, 0x0)
    173e:	98c1      	ld.w      	r6, (r14, 0x4)
    1740:	658c      	cmphs      	r3, r6
    1742:	0c10      	bf      	0x1762	// 1762 <__divdf3+0xaa>
    1744:	64da      	cmpne      	r6, r3
    1746:	0803      	bt      	0x174c	// 174c <__divdf3+0x94>
    1748:	6548      	cmphs      	r2, r5
    174a:	0c0c      	bf      	0x1762	// 1762 <__divdf3+0xaa>
    174c:	98a2      	ld.w      	r5, (r14, 0x8)
    174e:	98c3      	ld.w      	r6, (r14, 0xc)
    1750:	6d40      	or      	r5, r0
    1752:	6d84      	or      	r6, r1
    1754:	b8a2      	st.w      	r5, (r14, 0x8)
    1756:	b8c3      	st.w      	r6, (r14, 0xc)
    1758:	98a0      	ld.w      	r5, (r14, 0x0)
    175a:	98c1      	ld.w      	r6, (r14, 0x4)
    175c:	6488      	cmphs      	r2, r2
    175e:	6097      	subc      	r2, r5
    1760:	60db      	subc      	r3, r6
    1762:	41bf      	lsli      	r5, r1, 31
    1764:	48e1      	lsri      	r7, r0, 1
    1766:	6d97      	mov      	r6, r5
    1768:	49a1      	lsri      	r5, r1, 1
    176a:	6d9c      	or      	r6, r7
    176c:	6c57      	mov      	r1, r5
    176e:	4abf      	lsri      	r5, r2, 31
    1770:	6c1b      	mov      	r0, r6
    1772:	2c00      	subi      	r4, 1
    1774:	6d97      	mov      	r6, r5
    1776:	43a1      	lsli      	r5, r3, 1
    1778:	6d94      	or      	r6, r5
    177a:	4261      	lsli      	r3, r2, 1
    177c:	3c40      	cmpnei      	r4, 0
    177e:	6dcf      	mov      	r7, r3
    1780:	6c8f      	mov      	r2, r3
    1782:	6cdb      	mov      	r3, r6
    1784:	0bdc      	bt      	0x173c	// 173c <__divdf3+0x84>
    1786:	30ff      	movi      	r0, 255
    1788:	3100      	movi      	r1, 0
    178a:	9882      	ld.w      	r4, (r14, 0x8)
    178c:	98a3      	ld.w      	r5, (r14, 0xc)
    178e:	6900      	and      	r4, r0
    1790:	6944      	and      	r5, r1
    1792:	6c13      	mov      	r0, r4
    1794:	6c57      	mov      	r1, r5
    1796:	3480      	movi      	r4, 128
    1798:	6502      	cmpne      	r0, r4
    179a:	0c15      	bf      	0x17c4	// 17c4 <__divdf3+0x10c>
    179c:	9862      	ld.w      	r3, (r14, 0x8)
    179e:	9883      	ld.w      	r4, (r14, 0xc)
    17a0:	b86b      	st.w      	r3, (r14, 0x2c)
    17a2:	b88c      	st.w      	r4, (r14, 0x30)
    17a4:	1808      	addi      	r0, r14, 32
    17a6:	e0000267 	bsr      	0x1c74	// 1c74 <__pack_d>
    17aa:	1412      	addi      	r14, r14, 72
    17ac:	1494      	pop      	r4-r7, r15
    17ae:	644e      	cmpne      	r3, r1
    17b0:	0bfa      	bt      	0x17a4	// 17a4 <__divdf3+0xec>
    17b2:	1016      	lrw      	r0, 0x961c	// 1808 <__divdf3+0x150>
    17b4:	07f9      	br      	0x17a6	// 17a6 <__divdf3+0xee>
    17b6:	3300      	movi      	r3, 0
    17b8:	3400      	movi      	r4, 0
    17ba:	b86b      	st.w      	r3, (r14, 0x2c)
    17bc:	b88c      	st.w      	r4, (r14, 0x30)
    17be:	b86a      	st.w      	r3, (r14, 0x28)
    17c0:	1808      	addi      	r0, r14, 32
    17c2:	07f2      	br      	0x17a6	// 17a6 <__divdf3+0xee>
    17c4:	3940      	cmpnei      	r1, 0
    17c6:	0beb      	bt      	0x179c	// 179c <__divdf3+0xe4>
    17c8:	3180      	movi      	r1, 128
    17ca:	4121      	lsli      	r1, r1, 1
    17cc:	9882      	ld.w      	r4, (r14, 0x8)
    17ce:	98a3      	ld.w      	r5, (r14, 0xc)
    17d0:	6850      	and      	r1, r4
    17d2:	3940      	cmpnei      	r1, 0
    17d4:	0be4      	bt      	0x179c	// 179c <__divdf3+0xe4>
    17d6:	6c98      	or      	r2, r6
    17d8:	3a40      	cmpnei      	r2, 0
    17da:	0fe1      	bf      	0x179c	// 179c <__divdf3+0xe4>
    17dc:	3280      	movi      	r2, 128
    17de:	3300      	movi      	r3, 0
    17e0:	6c13      	mov      	r0, r4
    17e2:	6c57      	mov      	r1, r5
    17e4:	6401      	cmplt      	r0, r0
    17e6:	6009      	addc      	r0, r2
    17e8:	604d      	addc      	r1, r3
    17ea:	6c83      	mov      	r2, r0
    17ec:	6cc7      	mov      	r3, r1
    17ee:	6c0b      	mov      	r0, r2
    17f0:	31ff      	movi      	r1, 255
    17f2:	6805      	andn      	r0, r1
    17f4:	b802      	st.w      	r0, (r14, 0x8)
    17f6:	b863      	st.w      	r3, (r14, 0xc)
    17f8:	07d2      	br      	0x179c	// 179c <__divdf3+0xe4>
    17fa:	3304      	movi      	r3, 4
    17fc:	b868      	st.w      	r3, (r14, 0x20)
    17fe:	1808      	addi      	r0, r14, 32
    1800:	07d3      	br      	0x17a6	// 17a6 <__divdf3+0xee>
    1802:	180d      	addi      	r0, r14, 52
    1804:	07d1      	br      	0x17a6	// 17a6 <__divdf3+0xee>
    1806:	0000      	bkpt
    1808:	0000961c 	.long	0x0000961c

0000180c <__gtdf2>:
    180c:	14d0      	push      	r15
    180e:	142e      	subi      	r14, r14, 56
    1810:	b800      	st.w      	r0, (r14, 0x0)
    1812:	b821      	st.w      	r1, (r14, 0x4)
    1814:	6c3b      	mov      	r0, r14
    1816:	1904      	addi      	r1, r14, 16
    1818:	b863      	st.w      	r3, (r14, 0xc)
    181a:	b842      	st.w      	r2, (r14, 0x8)
    181c:	e00002fa 	bsr      	0x1e10	// 1e10 <__unpack_d>
    1820:	1909      	addi      	r1, r14, 36
    1822:	1802      	addi      	r0, r14, 8
    1824:	e00002f6 	bsr      	0x1e10	// 1e10 <__unpack_d>
    1828:	9864      	ld.w      	r3, (r14, 0x10)
    182a:	3b01      	cmphsi      	r3, 2
    182c:	0c0a      	bf      	0x1840	// 1840 <__gtdf2+0x34>
    182e:	9869      	ld.w      	r3, (r14, 0x24)
    1830:	3b01      	cmphsi      	r3, 2
    1832:	0c07      	bf      	0x1840	// 1840 <__gtdf2+0x34>
    1834:	1909      	addi      	r1, r14, 36
    1836:	1804      	addi      	r0, r14, 16
    1838:	e000034e 	bsr      	0x1ed4	// 1ed4 <__fpcmp_parts_d>
    183c:	140e      	addi      	r14, r14, 56
    183e:	1490      	pop      	r15
    1840:	3000      	movi      	r0, 0
    1842:	2800      	subi      	r0, 1
    1844:	140e      	addi      	r14, r14, 56
    1846:	1490      	pop      	r15

00001848 <__gedf2>:
    1848:	14d0      	push      	r15
    184a:	142e      	subi      	r14, r14, 56
    184c:	b800      	st.w      	r0, (r14, 0x0)
    184e:	b821      	st.w      	r1, (r14, 0x4)
    1850:	6c3b      	mov      	r0, r14
    1852:	1904      	addi      	r1, r14, 16
    1854:	b863      	st.w      	r3, (r14, 0xc)
    1856:	b842      	st.w      	r2, (r14, 0x8)
    1858:	e00002dc 	bsr      	0x1e10	// 1e10 <__unpack_d>
    185c:	1909      	addi      	r1, r14, 36
    185e:	1802      	addi      	r0, r14, 8
    1860:	e00002d8 	bsr      	0x1e10	// 1e10 <__unpack_d>
    1864:	9864      	ld.w      	r3, (r14, 0x10)
    1866:	3b01      	cmphsi      	r3, 2
    1868:	0c0a      	bf      	0x187c	// 187c <__gedf2+0x34>
    186a:	9869      	ld.w      	r3, (r14, 0x24)
    186c:	3b01      	cmphsi      	r3, 2
    186e:	0c07      	bf      	0x187c	// 187c <__gedf2+0x34>
    1870:	1909      	addi      	r1, r14, 36
    1872:	1804      	addi      	r0, r14, 16
    1874:	e0000330 	bsr      	0x1ed4	// 1ed4 <__fpcmp_parts_d>
    1878:	140e      	addi      	r14, r14, 56
    187a:	1490      	pop      	r15
    187c:	3000      	movi      	r0, 0
    187e:	2800      	subi      	r0, 1
    1880:	140e      	addi      	r14, r14, 56
    1882:	1490      	pop      	r15

00001884 <__ledf2>:
    1884:	14d0      	push      	r15
    1886:	142e      	subi      	r14, r14, 56
    1888:	b800      	st.w      	r0, (r14, 0x0)
    188a:	b821      	st.w      	r1, (r14, 0x4)
    188c:	6c3b      	mov      	r0, r14
    188e:	1904      	addi      	r1, r14, 16
    1890:	b863      	st.w      	r3, (r14, 0xc)
    1892:	b842      	st.w      	r2, (r14, 0x8)
    1894:	e00002be 	bsr      	0x1e10	// 1e10 <__unpack_d>
    1898:	1909      	addi      	r1, r14, 36
    189a:	1802      	addi      	r0, r14, 8
    189c:	e00002ba 	bsr      	0x1e10	// 1e10 <__unpack_d>
    18a0:	9864      	ld.w      	r3, (r14, 0x10)
    18a2:	3b01      	cmphsi      	r3, 2
    18a4:	0c0a      	bf      	0x18b8	// 18b8 <__ledf2+0x34>
    18a6:	9869      	ld.w      	r3, (r14, 0x24)
    18a8:	3b01      	cmphsi      	r3, 2
    18aa:	0c07      	bf      	0x18b8	// 18b8 <__ledf2+0x34>
    18ac:	1909      	addi      	r1, r14, 36
    18ae:	1804      	addi      	r0, r14, 16
    18b0:	e0000312 	bsr      	0x1ed4	// 1ed4 <__fpcmp_parts_d>
    18b4:	140e      	addi      	r14, r14, 56
    18b6:	1490      	pop      	r15
    18b8:	3001      	movi      	r0, 1
    18ba:	140e      	addi      	r14, r14, 56
    18bc:	1490      	pop      	r15
	...

000018c0 <__floatsidf>:
    18c0:	14d1      	push      	r4, r15
    18c2:	1425      	subi      	r14, r14, 20
    18c4:	3303      	movi      	r3, 3
    18c6:	b860      	st.w      	r3, (r14, 0x0)
    18c8:	3840      	cmpnei      	r0, 0
    18ca:	487f      	lsri      	r3, r0, 31
    18cc:	b861      	st.w      	r3, (r14, 0x4)
    18ce:	0808      	bt      	0x18de	// 18de <__floatsidf+0x1e>
    18d0:	3302      	movi      	r3, 2
    18d2:	b860      	st.w      	r3, (r14, 0x0)
    18d4:	6c3b      	mov      	r0, r14
    18d6:	e00001cf 	bsr      	0x1c74	// 1c74 <__pack_d>
    18da:	1405      	addi      	r14, r14, 20
    18dc:	1491      	pop      	r4, r15
    18de:	38df      	btsti      	r0, 31
    18e0:	0812      	bt      	0x1904	// 1904 <__floatsidf+0x44>
    18e2:	6d03      	mov      	r4, r0
    18e4:	6c13      	mov      	r0, r4
    18e6:	e00000c1 	bsr      	0x1a68	// 1a68 <__clzsi2>
    18ea:	321d      	movi      	r2, 29
    18ec:	6080      	addu      	r2, r0
    18ee:	2802      	subi      	r0, 3
    18f0:	38df      	btsti      	r0, 31
    18f2:	0810      	bt      	0x1912	// 1912 <__floatsidf+0x52>
    18f4:	7100      	lsl      	r4, r0
    18f6:	3300      	movi      	r3, 0
    18f8:	b884      	st.w      	r4, (r14, 0x10)
    18fa:	b863      	st.w      	r3, (r14, 0xc)
    18fc:	333c      	movi      	r3, 60
    18fe:	60ca      	subu      	r3, r2
    1900:	b862      	st.w      	r3, (r14, 0x8)
    1902:	07e9      	br      	0x18d4	// 18d4 <__floatsidf+0x14>
    1904:	3380      	movi      	r3, 128
    1906:	4378      	lsli      	r3, r3, 24
    1908:	64c2      	cmpne      	r0, r3
    190a:	0c0d      	bf      	0x1924	// 1924 <__floatsidf+0x64>
    190c:	3400      	movi      	r4, 0
    190e:	6102      	subu      	r4, r0
    1910:	07ea      	br      	0x18e4	// 18e4 <__floatsidf+0x24>
    1912:	311f      	movi      	r1, 31
    1914:	4c61      	lsri      	r3, r4, 1
    1916:	604a      	subu      	r1, r2
    1918:	6c13      	mov      	r0, r4
    191a:	70c5      	lsr      	r3, r1
    191c:	7008      	lsl      	r0, r2
    191e:	b864      	st.w      	r3, (r14, 0x10)
    1920:	b803      	st.w      	r0, (r14, 0xc)
    1922:	07ed      	br      	0x18fc	// 18fc <__floatsidf+0x3c>
    1924:	3000      	movi      	r0, 0
    1926:	1022      	lrw      	r1, 0xc1e00000	// 192c <__floatsidf+0x6c>
    1928:	07d9      	br      	0x18da	// 18da <__floatsidf+0x1a>
    192a:	0000      	bkpt
    192c:	c1e00000 	.long	0xc1e00000

00001930 <__fixdfsi>:
    1930:	14d0      	push      	r15
    1932:	1427      	subi      	r14, r14, 28
    1934:	b800      	st.w      	r0, (r14, 0x0)
    1936:	b821      	st.w      	r1, (r14, 0x4)
    1938:	6c3b      	mov      	r0, r14
    193a:	1902      	addi      	r1, r14, 8
    193c:	e000026a 	bsr      	0x1e10	// 1e10 <__unpack_d>
    1940:	9862      	ld.w      	r3, (r14, 0x8)
    1942:	3b02      	cmphsi      	r3, 3
    1944:	0c20      	bf      	0x1984	// 1984 <__fixdfsi+0x54>
    1946:	3b44      	cmpnei      	r3, 4
    1948:	0c16      	bf      	0x1974	// 1974 <__fixdfsi+0x44>
    194a:	9864      	ld.w      	r3, (r14, 0x10)
    194c:	3bdf      	btsti      	r3, 31
    194e:	081b      	bt      	0x1984	// 1984 <__fixdfsi+0x54>
    1950:	3b3e      	cmplti      	r3, 31
    1952:	0c11      	bf      	0x1974	// 1974 <__fixdfsi+0x44>
    1954:	323c      	movi      	r2, 60
    1956:	5a6d      	subu      	r3, r2, r3
    1958:	3200      	movi      	r2, 0
    195a:	2a1f      	subi      	r2, 32
    195c:	608c      	addu      	r2, r3
    195e:	3adf      	btsti      	r2, 31
    1960:	0815      	bt      	0x198a	// 198a <__fixdfsi+0x5a>
    1962:	9806      	ld.w      	r0, (r14, 0x18)
    1964:	7009      	lsr      	r0, r2
    1966:	9863      	ld.w      	r3, (r14, 0xc)
    1968:	3b40      	cmpnei      	r3, 0
    196a:	0c0b      	bf      	0x1980	// 1980 <__fixdfsi+0x50>
    196c:	3300      	movi      	r3, 0
    196e:	5b01      	subu      	r0, r3, r0
    1970:	1407      	addi      	r14, r14, 28
    1972:	1490      	pop      	r15
    1974:	9863      	ld.w      	r3, (r14, 0xc)
    1976:	3b40      	cmpnei      	r3, 0
    1978:	3000      	movi      	r0, 0
    197a:	6001      	addc      	r0, r0
    197c:	1068      	lrw      	r3, 0x7fffffff	// 199c <__fixdfsi+0x6c>
    197e:	600c      	addu      	r0, r3
    1980:	1407      	addi      	r14, r14, 28
    1982:	1490      	pop      	r15
    1984:	3000      	movi      	r0, 0
    1986:	1407      	addi      	r14, r14, 28
    1988:	1490      	pop      	r15
    198a:	9846      	ld.w      	r2, (r14, 0x18)
    198c:	311f      	movi      	r1, 31
    198e:	4241      	lsli      	r2, r2, 1
    1990:	604e      	subu      	r1, r3
    1992:	9805      	ld.w      	r0, (r14, 0x14)
    1994:	7084      	lsl      	r2, r1
    1996:	700d      	lsr      	r0, r3
    1998:	6c08      	or      	r0, r2
    199a:	07e6      	br      	0x1966	// 1966 <__fixdfsi+0x36>
    199c:	7fffffff 	.long	0x7fffffff

000019a0 <__truncdfsf2>:
    19a0:	14d0      	push      	r15
    19a2:	1427      	subi      	r14, r14, 28
    19a4:	b800      	st.w      	r0, (r14, 0x0)
    19a6:	b821      	st.w      	r1, (r14, 0x4)
    19a8:	6c3b      	mov      	r0, r14
    19aa:	1902      	addi      	r1, r14, 8
    19ac:	e0000232 	bsr      	0x1e10	// 1e10 <__unpack_d>
    19b0:	9845      	ld.w      	r2, (r14, 0x14)
    19b2:	4a3e      	lsri      	r1, r2, 30
    19b4:	9866      	ld.w      	r3, (r14, 0x18)
    19b6:	4242      	lsli      	r2, r2, 2
    19b8:	4362      	lsli      	r3, r3, 2
    19ba:	3a40      	cmpnei      	r2, 0
    19bc:	6cc4      	or      	r3, r1
    19be:	0c02      	bf      	0x19c2	// 19c2 <__truncdfsf2+0x22>
    19c0:	3ba0      	bseti      	r3, 0
    19c2:	9844      	ld.w      	r2, (r14, 0x10)
    19c4:	9823      	ld.w      	r1, (r14, 0xc)
    19c6:	9802      	ld.w      	r0, (r14, 0x8)
    19c8:	e000014a 	bsr      	0x1c5c	// 1c5c <__make_fp>
    19cc:	1407      	addi      	r14, r14, 28
    19ce:	1490      	pop      	r15

000019d0 <__floatunsidf>:
    19d0:	14d2      	push      	r4-r5, r15
    19d2:	1425      	subi      	r14, r14, 20
    19d4:	3840      	cmpnei      	r0, 0
    19d6:	3500      	movi      	r5, 0
    19d8:	6d03      	mov      	r4, r0
    19da:	b8a1      	st.w      	r5, (r14, 0x4)
    19dc:	0c15      	bf      	0x1a06	// 1a06 <__floatunsidf+0x36>
    19de:	3303      	movi      	r3, 3
    19e0:	b860      	st.w      	r3, (r14, 0x0)
    19e2:	e0000043 	bsr      	0x1a68	// 1a68 <__clzsi2>
    19e6:	321d      	movi      	r2, 29
    19e8:	6080      	addu      	r2, r0
    19ea:	2802      	subi      	r0, 3
    19ec:	38df      	btsti      	r0, 31
    19ee:	0813      	bt      	0x1a14	// 1a14 <__floatunsidf+0x44>
    19f0:	7100      	lsl      	r4, r0
    19f2:	b884      	st.w      	r4, (r14, 0x10)
    19f4:	b8a3      	st.w      	r5, (r14, 0xc)
    19f6:	333c      	movi      	r3, 60
    19f8:	60ca      	subu      	r3, r2
    19fa:	6c3b      	mov      	r0, r14
    19fc:	b862      	st.w      	r3, (r14, 0x8)
    19fe:	e000013b 	bsr      	0x1c74	// 1c74 <__pack_d>
    1a02:	1405      	addi      	r14, r14, 20
    1a04:	1492      	pop      	r4-r5, r15
    1a06:	3302      	movi      	r3, 2
    1a08:	6c3b      	mov      	r0, r14
    1a0a:	b860      	st.w      	r3, (r14, 0x0)
    1a0c:	e0000134 	bsr      	0x1c74	// 1c74 <__pack_d>
    1a10:	1405      	addi      	r14, r14, 20
    1a12:	1492      	pop      	r4-r5, r15
    1a14:	311f      	movi      	r1, 31
    1a16:	4c61      	lsri      	r3, r4, 1
    1a18:	604a      	subu      	r1, r2
    1a1a:	70c5      	lsr      	r3, r1
    1a1c:	7108      	lsl      	r4, r2
    1a1e:	b864      	st.w      	r3, (r14, 0x10)
    1a20:	b883      	st.w      	r4, (r14, 0xc)
    1a22:	07ea      	br      	0x19f6	// 19f6 <__floatunsidf+0x26>

00001a24 <__muldi3>:
    1a24:	14c4      	push      	r4-r7
    1a26:	1421      	subi      	r14, r14, 4
    1a28:	7501      	zexth      	r4, r0
    1a2a:	48b0      	lsri      	r5, r0, 16
    1a2c:	75c9      	zexth      	r7, r2
    1a2e:	6d83      	mov      	r6, r0
    1a30:	b820      	st.w      	r1, (r14, 0x0)
    1a32:	6c13      	mov      	r0, r4
    1a34:	4a30      	lsri      	r1, r2, 16
    1a36:	7c1c      	mult      	r0, r7
    1a38:	7d04      	mult      	r4, r1
    1a3a:	7dd4      	mult      	r7, r5
    1a3c:	611c      	addu      	r4, r7
    1a3e:	7d44      	mult      	r5, r1
    1a40:	4830      	lsri      	r1, r0, 16
    1a42:	6104      	addu      	r4, r1
    1a44:	65d0      	cmphs      	r4, r7
    1a46:	0804      	bt      	0x1a4e	// 1a4e <__muldi3+0x2a>
    1a48:	3180      	movi      	r1, 128
    1a4a:	4129      	lsli      	r1, r1, 9
    1a4c:	6144      	addu      	r5, r1
    1a4e:	4c30      	lsri      	r1, r4, 16
    1a50:	7cd8      	mult      	r3, r6
    1a52:	6144      	addu      	r5, r1
    1a54:	6c4f      	mov      	r1, r3
    1a56:	9860      	ld.w      	r3, (r14, 0x0)
    1a58:	7cc8      	mult      	r3, r2
    1a5a:	4490      	lsli      	r4, r4, 16
    1a5c:	604c      	addu      	r1, r3
    1a5e:	7401      	zexth      	r0, r0
    1a60:	6010      	addu      	r0, r4
    1a62:	6054      	addu      	r1, r5
    1a64:	1401      	addi      	r14, r14, 4
    1a66:	1484      	pop      	r4-r7

00001a68 <__clzsi2>:
    1a68:	106d      	lrw      	r3, 0xffff	// 1a9c <__clzsi2+0x34>
    1a6a:	640c      	cmphs      	r3, r0
    1a6c:	0c07      	bf      	0x1a7a	// 1a7a <__clzsi2+0x12>
    1a6e:	33ff      	movi      	r3, 255
    1a70:	640c      	cmphs      	r3, r0
    1a72:	0c0f      	bf      	0x1a90	// 1a90 <__clzsi2+0x28>
    1a74:	3320      	movi      	r3, 32
    1a76:	3200      	movi      	r2, 0
    1a78:	0406      	br      	0x1a84	// 1a84 <__clzsi2+0x1c>
    1a7a:	106a      	lrw      	r3, 0xffffff	// 1aa0 <__clzsi2+0x38>
    1a7c:	640c      	cmphs      	r3, r0
    1a7e:	080c      	bt      	0x1a96	// 1a96 <__clzsi2+0x2e>
    1a80:	3308      	movi      	r3, 8
    1a82:	3218      	movi      	r2, 24
    1a84:	7009      	lsr      	r0, r2
    1a86:	1048      	lrw      	r2, 0x9630	// 1aa4 <__clzsi2+0x3c>
    1a88:	6008      	addu      	r0, r2
    1a8a:	8040      	ld.b      	r2, (r0, 0x0)
    1a8c:	5b09      	subu      	r0, r3, r2
    1a8e:	783c      	jmp      	r15
    1a90:	3318      	movi      	r3, 24
    1a92:	3208      	movi      	r2, 8
    1a94:	07f8      	br      	0x1a84	// 1a84 <__clzsi2+0x1c>
    1a96:	3310      	movi      	r3, 16
    1a98:	3210      	movi      	r2, 16
    1a9a:	07f5      	br      	0x1a84	// 1a84 <__clzsi2+0x1c>
    1a9c:	0000ffff 	.long	0x0000ffff
    1aa0:	00ffffff 	.long	0x00ffffff
    1aa4:	00009630 	.long	0x00009630

00001aa8 <__pack_f>:
    1aa8:	14c2      	push      	r4-r5
    1aaa:	9040      	ld.w      	r2, (r0, 0x0)
    1aac:	3a01      	cmphsi      	r2, 2
    1aae:	9063      	ld.w      	r3, (r0, 0xc)
    1ab0:	9021      	ld.w      	r1, (r0, 0x4)
    1ab2:	0c27      	bf      	0x1b00	// 1b00 <__pack_f+0x58>
    1ab4:	3a44      	cmpnei      	r2, 4
    1ab6:	0c22      	bf      	0x1afa	// 1afa <__pack_f+0x52>
    1ab8:	3a42      	cmpnei      	r2, 2
    1aba:	0c1d      	bf      	0x1af4	// 1af4 <__pack_f+0x4c>
    1abc:	3b40      	cmpnei      	r3, 0
    1abe:	0c1b      	bf      	0x1af4	// 1af4 <__pack_f+0x4c>
    1ac0:	3400      	movi      	r4, 0
    1ac2:	9042      	ld.w      	r2, (r0, 0x8)
    1ac4:	2c7d      	subi      	r4, 126
    1ac6:	6509      	cmplt      	r2, r4
    1ac8:	082a      	bt      	0x1b1c	// 1b1c <__pack_f+0x74>
    1aca:	347f      	movi      	r4, 127
    1acc:	6491      	cmplt      	r4, r2
    1ace:	0816      	bt      	0x1afa	// 1afa <__pack_f+0x52>
    1ad0:	690c      	and      	r4, r3
    1ad2:	3540      	movi      	r5, 64
    1ad4:	6552      	cmpne      	r4, r5
    1ad6:	0c1a      	bf      	0x1b0a	// 1b0a <__pack_f+0x62>
    1ad8:	233e      	addi      	r3, 63
    1ada:	3bdf      	btsti      	r3, 31
    1adc:	081d      	bt      	0x1b16	// 1b16 <__pack_f+0x6e>
    1ade:	227e      	addi      	r2, 127
    1ae0:	4302      	lsli      	r0, r3, 2
    1ae2:	4809      	lsri      	r0, r0, 9
    1ae4:	74c8      	zextb      	r3, r2
    1ae6:	4009      	lsli      	r0, r0, 9
    1ae8:	4377      	lsli      	r3, r3, 23
    1aea:	4809      	lsri      	r0, r0, 9
    1aec:	413f      	lsli      	r1, r1, 31
    1aee:	6c0c      	or      	r0, r3
    1af0:	6c04      	or      	r0, r1
    1af2:	1482      	pop      	r4-r5
    1af4:	3300      	movi      	r3, 0
    1af6:	3000      	movi      	r0, 0
    1af8:	07f7      	br      	0x1ae6	// 1ae6 <__pack_f+0x3e>
    1afa:	33ff      	movi      	r3, 255
    1afc:	3000      	movi      	r0, 0
    1afe:	07f4      	br      	0x1ae6	// 1ae6 <__pack_f+0x3e>
    1b00:	4303      	lsli      	r0, r3, 3
    1b02:	480a      	lsri      	r0, r0, 10
    1b04:	38b6      	bseti      	r0, 22
    1b06:	33ff      	movi      	r3, 255
    1b08:	07ef      	br      	0x1ae6	// 1ae6 <__pack_f+0x3e>
    1b0a:	3080      	movi      	r0, 128
    1b0c:	680c      	and      	r0, r3
    1b0e:	3840      	cmpnei      	r0, 0
    1b10:	0fe5      	bf      	0x1ada	// 1ada <__pack_f+0x32>
    1b12:	60d0      	addu      	r3, r4
    1b14:	07e3      	br      	0x1ada	// 1ada <__pack_f+0x32>
    1b16:	4b61      	lsri      	r3, r3, 1
    1b18:	227f      	addi      	r2, 128
    1b1a:	07e3      	br      	0x1ae0	// 1ae0 <__pack_f+0x38>
    1b1c:	610a      	subu      	r4, r2
    1b1e:	3c39      	cmplti      	r4, 26
    1b20:	0fea      	bf      	0x1af4	// 1af4 <__pack_f+0x4c>
    1b22:	3201      	movi      	r2, 1
    1b24:	7090      	lsl      	r2, r4
    1b26:	2a00      	subi      	r2, 1
    1b28:	6c0f      	mov      	r0, r3
    1b2a:	68c8      	and      	r3, r2
    1b2c:	3b40      	cmpnei      	r3, 0
    1b2e:	3300      	movi      	r3, 0
    1b30:	7011      	lsr      	r0, r4
    1b32:	60cd      	addc      	r3, r3
    1b34:	6cc0      	or      	r3, r0
    1b36:	307f      	movi      	r0, 127
    1b38:	680c      	and      	r0, r3
    1b3a:	3240      	movi      	r2, 64
    1b3c:	6482      	cmpne      	r0, r2
    1b3e:	080d      	bt      	0x1b58	// 1b58 <__pack_f+0xb0>
    1b40:	3280      	movi      	r2, 128
    1b42:	688c      	and      	r2, r3
    1b44:	3a40      	cmpnei      	r2, 0
    1b46:	0c02      	bf      	0x1b4a	// 1b4a <__pack_f+0xa2>
    1b48:	60c0      	addu      	r3, r0
    1b4a:	1045      	lrw      	r2, 0x3fffffff	// 1b5c <__pack_f+0xb4>
    1b4c:	64c8      	cmphs      	r2, r3
    1b4e:	4302      	lsli      	r0, r3, 2
    1b50:	64c3      	mvcv      	r3
    1b52:	4809      	lsri      	r0, r0, 9
    1b54:	74cc      	zextb      	r3, r3
    1b56:	07c8      	br      	0x1ae6	// 1ae6 <__pack_f+0x3e>
    1b58:	233e      	addi      	r3, 63
    1b5a:	07f8      	br      	0x1b4a	// 1b4a <__pack_f+0xa2>
    1b5c:	3fffffff 	.long	0x3fffffff

00001b60 <__unpack_f>:
    1b60:	14c1      	push      	r4
    1b62:	8861      	ld.h      	r3, (r0, 0x2)
    1b64:	4371      	lsli      	r3, r3, 17
    1b66:	9040      	ld.w      	r2, (r0, 0x0)
    1b68:	4b78      	lsri      	r3, r3, 24
    1b6a:	8003      	ld.b      	r0, (r0, 0x3)
    1b6c:	4249      	lsli      	r2, r2, 9
    1b6e:	4807      	lsri      	r0, r0, 7
    1b70:	3b40      	cmpnei      	r3, 0
    1b72:	4a49      	lsri      	r2, r2, 9
    1b74:	b101      	st.w      	r0, (r1, 0x4)
    1b76:	0811      	bt      	0x1b98	// 1b98 <__unpack_f+0x38>
    1b78:	3a40      	cmpnei      	r2, 0
    1b7a:	0c1a      	bf      	0x1bae	// 1bae <__unpack_f+0x4e>
    1b7c:	3303      	movi      	r3, 3
    1b7e:	b160      	st.w      	r3, (r1, 0x0)
    1b80:	3300      	movi      	r3, 0
    1b82:	4247      	lsli      	r2, r2, 7
    1b84:	2b7e      	subi      	r3, 127
    1b86:	1096      	lrw      	r4, 0x3fffffff	// 1bdc <__unpack_f+0x7c>
    1b88:	4241      	lsli      	r2, r2, 1
    1b8a:	6490      	cmphs      	r4, r2
    1b8c:	6c0f      	mov      	r0, r3
    1b8e:	2b00      	subi      	r3, 1
    1b90:	0bfc      	bt      	0x1b88	// 1b88 <__unpack_f+0x28>
    1b92:	b102      	st.w      	r0, (r1, 0x8)
    1b94:	b143      	st.w      	r2, (r1, 0xc)
    1b96:	1481      	pop      	r4
    1b98:	30ff      	movi      	r0, 255
    1b9a:	640e      	cmpne      	r3, r0
    1b9c:	0c0c      	bf      	0x1bb4	// 1bb4 <__unpack_f+0x54>
    1b9e:	2b7e      	subi      	r3, 127
    1ba0:	4247      	lsli      	r2, r2, 7
    1ba2:	b162      	st.w      	r3, (r1, 0x8)
    1ba4:	3abe      	bseti      	r2, 30
    1ba6:	3303      	movi      	r3, 3
    1ba8:	b160      	st.w      	r3, (r1, 0x0)
    1baa:	b143      	st.w      	r2, (r1, 0xc)
    1bac:	1481      	pop      	r4
    1bae:	3302      	movi      	r3, 2
    1bb0:	b160      	st.w      	r3, (r1, 0x0)
    1bb2:	1481      	pop      	r4
    1bb4:	3a40      	cmpnei      	r2, 0
    1bb6:	0c0d      	bf      	0x1bd0	// 1bd0 <__unpack_f+0x70>
    1bb8:	3380      	movi      	r3, 128
    1bba:	436f      	lsli      	r3, r3, 15
    1bbc:	68c8      	and      	r3, r2
    1bbe:	3b40      	cmpnei      	r3, 0
    1bc0:	0c0b      	bf      	0x1bd6	// 1bd6 <__unpack_f+0x76>
    1bc2:	3301      	movi      	r3, 1
    1bc4:	b160      	st.w      	r3, (r1, 0x0)
    1bc6:	1067      	lrw      	r3, 0x2000007f	// 1be0 <__unpack_f+0x80>
    1bc8:	4247      	lsli      	r2, r2, 7
    1bca:	688d      	andn      	r2, r3
    1bcc:	b143      	st.w      	r2, (r1, 0xc)
    1bce:	1481      	pop      	r4
    1bd0:	3304      	movi      	r3, 4
    1bd2:	b160      	st.w      	r3, (r1, 0x0)
    1bd4:	1481      	pop      	r4
    1bd6:	b160      	st.w      	r3, (r1, 0x0)
    1bd8:	07f7      	br      	0x1bc6	// 1bc6 <__unpack_f+0x66>
    1bda:	0000      	bkpt
    1bdc:	3fffffff 	.long	0x3fffffff
    1be0:	2000007f 	.long	0x2000007f

00001be4 <__fpcmp_parts_f>:
    1be4:	14c1      	push      	r4
    1be6:	9060      	ld.w      	r3, (r0, 0x0)
    1be8:	3b01      	cmphsi      	r3, 2
    1bea:	0c12      	bf      	0x1c0e	// 1c0e <__fpcmp_parts_f+0x2a>
    1bec:	9140      	ld.w      	r2, (r1, 0x0)
    1bee:	3a01      	cmphsi      	r2, 2
    1bf0:	0c0f      	bf      	0x1c0e	// 1c0e <__fpcmp_parts_f+0x2a>
    1bf2:	3b44      	cmpnei      	r3, 4
    1bf4:	0c17      	bf      	0x1c22	// 1c22 <__fpcmp_parts_f+0x3e>
    1bf6:	3a44      	cmpnei      	r2, 4
    1bf8:	0c0f      	bf      	0x1c16	// 1c16 <__fpcmp_parts_f+0x32>
    1bfa:	3b42      	cmpnei      	r3, 2
    1bfc:	0c0b      	bf      	0x1c12	// 1c12 <__fpcmp_parts_f+0x2e>
    1bfe:	3a42      	cmpnei      	r2, 2
    1c00:	0c13      	bf      	0x1c26	// 1c26 <__fpcmp_parts_f+0x42>
    1c02:	9061      	ld.w      	r3, (r0, 0x4)
    1c04:	9141      	ld.w      	r2, (r1, 0x4)
    1c06:	648e      	cmpne      	r3, r2
    1c08:	0c14      	bf      	0x1c30	// 1c30 <__fpcmp_parts_f+0x4c>
    1c0a:	3b40      	cmpnei      	r3, 0
    1c0c:	0808      	bt      	0x1c1c	// 1c1c <__fpcmp_parts_f+0x38>
    1c0e:	3001      	movi      	r0, 1
    1c10:	1481      	pop      	r4
    1c12:	3a42      	cmpnei      	r2, 2
    1c14:	0c1e      	bf      	0x1c50	// 1c50 <__fpcmp_parts_f+0x6c>
    1c16:	9161      	ld.w      	r3, (r1, 0x4)
    1c18:	3b40      	cmpnei      	r3, 0
    1c1a:	0bfa      	bt      	0x1c0e	// 1c0e <__fpcmp_parts_f+0x2a>
    1c1c:	3000      	movi      	r0, 0
    1c1e:	2800      	subi      	r0, 1
    1c20:	1481      	pop      	r4
    1c22:	3a44      	cmpnei      	r2, 4
    1c24:	0c18      	bf      	0x1c54	// 1c54 <__fpcmp_parts_f+0x70>
    1c26:	9061      	ld.w      	r3, (r0, 0x4)
    1c28:	3b40      	cmpnei      	r3, 0
    1c2a:	0bf9      	bt      	0x1c1c	// 1c1c <__fpcmp_parts_f+0x38>
    1c2c:	3001      	movi      	r0, 1
    1c2e:	07f1      	br      	0x1c10	// 1c10 <__fpcmp_parts_f+0x2c>
    1c30:	9082      	ld.w      	r4, (r0, 0x8)
    1c32:	9142      	ld.w      	r2, (r1, 0x8)
    1c34:	6509      	cmplt      	r2, r4
    1c36:	0bea      	bt      	0x1c0a	// 1c0a <__fpcmp_parts_f+0x26>
    1c38:	6491      	cmplt      	r4, r2
    1c3a:	0807      	bt      	0x1c48	// 1c48 <__fpcmp_parts_f+0x64>
    1c3c:	9003      	ld.w      	r0, (r0, 0xc)
    1c3e:	9143      	ld.w      	r2, (r1, 0xc)
    1c40:	6408      	cmphs      	r2, r0
    1c42:	0fe4      	bf      	0x1c0a	// 1c0a <__fpcmp_parts_f+0x26>
    1c44:	6480      	cmphs      	r0, r2
    1c46:	0805      	bt      	0x1c50	// 1c50 <__fpcmp_parts_f+0x6c>
    1c48:	3b40      	cmpnei      	r3, 0
    1c4a:	0fe9      	bf      	0x1c1c	// 1c1c <__fpcmp_parts_f+0x38>
    1c4c:	3001      	movi      	r0, 1
    1c4e:	07e1      	br      	0x1c10	// 1c10 <__fpcmp_parts_f+0x2c>
    1c50:	3000      	movi      	r0, 0
    1c52:	1481      	pop      	r4
    1c54:	9161      	ld.w      	r3, (r1, 0x4)
    1c56:	9041      	ld.w      	r2, (r0, 0x4)
    1c58:	5b09      	subu      	r0, r3, r2
    1c5a:	1481      	pop      	r4

00001c5c <__make_fp>:
    1c5c:	14d0      	push      	r15
    1c5e:	1424      	subi      	r14, r14, 16
    1c60:	b800      	st.w      	r0, (r14, 0x0)
    1c62:	6c3b      	mov      	r0, r14
    1c64:	b821      	st.w      	r1, (r14, 0x4)
    1c66:	b842      	st.w      	r2, (r14, 0x8)
    1c68:	b863      	st.w      	r3, (r14, 0xc)
    1c6a:	e3ffff1f 	bsr      	0x1aa8	// 1aa8 <__pack_f>
    1c6e:	1404      	addi      	r14, r14, 16
    1c70:	1490      	pop      	r15
	...

00001c74 <__pack_d>:
    1c74:	14c4      	push      	r4-r7
    1c76:	1422      	subi      	r14, r14, 8
    1c78:	9060      	ld.w      	r3, (r0, 0x0)
    1c7a:	3b01      	cmphsi      	r3, 2
    1c7c:	90c3      	ld.w      	r6, (r0, 0xc)
    1c7e:	90e4      	ld.w      	r7, (r0, 0x10)
    1c80:	9021      	ld.w      	r1, (r0, 0x4)
    1c82:	0c46      	bf      	0x1d0e	// 1d0e <__pack_d+0x9a>
    1c84:	3b44      	cmpnei      	r3, 4
    1c86:	0c40      	bf      	0x1d06	// 1d06 <__pack_d+0x92>
    1c88:	3b42      	cmpnei      	r3, 2
    1c8a:	0c27      	bf      	0x1cd8	// 1cd8 <__pack_d+0x64>
    1c8c:	6cdb      	mov      	r3, r6
    1c8e:	6cdc      	or      	r3, r7
    1c90:	3b40      	cmpnei      	r3, 0
    1c92:	0c23      	bf      	0x1cd8	// 1cd8 <__pack_d+0x64>
    1c94:	9062      	ld.w      	r3, (r0, 0x8)
    1c96:	125a      	lrw      	r2, 0xfffffc02	// 1dfc <__pack_d+0x188>
    1c98:	648d      	cmplt      	r3, r2
    1c9a:	0855      	bt      	0x1d44	// 1d44 <__pack_d+0xd0>
    1c9c:	1259      	lrw      	r2, 0x3ff	// 1e00 <__pack_d+0x18c>
    1c9e:	64c9      	cmplt      	r2, r3
    1ca0:	0833      	bt      	0x1d06	// 1d06 <__pack_d+0x92>
    1ca2:	34ff      	movi      	r4, 255
    1ca4:	3500      	movi      	r5, 0
    1ca6:	6918      	and      	r4, r6
    1ca8:	695c      	and      	r5, r7
    1caa:	3280      	movi      	r2, 128
    1cac:	6492      	cmpne      	r4, r2
    1cae:	0c3f      	bf      	0x1d2c	// 1d2c <__pack_d+0xb8>
    1cb0:	347f      	movi      	r4, 127
    1cb2:	3500      	movi      	r5, 0
    1cb4:	6599      	cmplt      	r6, r6
    1cb6:	6191      	addc      	r6, r4
    1cb8:	61d5      	addc      	r7, r5
    1cba:	1253      	lrw      	r2, 0x1fffffff	// 1e04 <__pack_d+0x190>
    1cbc:	65c8      	cmphs      	r2, r7
    1cbe:	0c1a      	bf      	0x1cf2	// 1cf2 <__pack_d+0x7e>
    1cc0:	1290      	lrw      	r4, 0x3ff	// 1e00 <__pack_d+0x18c>
    1cc2:	610c      	addu      	r4, r3
    1cc4:	4718      	lsli      	r0, r7, 24
    1cc6:	4f68      	lsri      	r3, r7, 8
    1cc8:	4e48      	lsri      	r2, r6, 8
    1cca:	6c80      	or      	r2, r0
    1ccc:	430c      	lsli      	r0, r3, 12
    1cce:	486c      	lsri      	r3, r0, 12
    1cd0:	120e      	lrw      	r0, 0x7ff	// 1e08 <__pack_d+0x194>
    1cd2:	6d4b      	mov      	r5, r2
    1cd4:	6900      	and      	r4, r0
    1cd6:	0404      	br      	0x1cde	// 1cde <__pack_d+0x6a>
    1cd8:	3400      	movi      	r4, 0
    1cda:	3200      	movi      	r2, 0
    1cdc:	3300      	movi      	r3, 0
    1cde:	430c      	lsli      	r0, r3, 12
    1ce0:	480c      	lsri      	r0, r0, 12
    1ce2:	4474      	lsli      	r3, r4, 20
    1ce4:	419f      	lsli      	r4, r1, 31
    1ce6:	6c43      	mov      	r1, r0
    1ce8:	6c4c      	or      	r1, r3
    1cea:	6c50      	or      	r1, r4
    1cec:	6c0b      	mov      	r0, r2
    1cee:	1402      	addi      	r14, r14, 8
    1cf0:	1484      	pop      	r4-r7
    1cf2:	479f      	lsli      	r4, r7, 31
    1cf4:	4e01      	lsri      	r0, r6, 1
    1cf6:	6d00      	or      	r4, r0
    1cf8:	6d93      	mov      	r6, r4
    1cfa:	3480      	movi      	r4, 128
    1cfc:	4f41      	lsri      	r2, r7, 1
    1cfe:	4483      	lsli      	r4, r4, 3
    1d00:	6dcb      	mov      	r7, r2
    1d02:	610c      	addu      	r4, r3
    1d04:	07e0      	br      	0x1cc4	// 1cc4 <__pack_d+0x50>
    1d06:	1281      	lrw      	r4, 0x7ff	// 1e08 <__pack_d+0x194>
    1d08:	3200      	movi      	r2, 0
    1d0a:	3300      	movi      	r3, 0
    1d0c:	07e9      	br      	0x1cde	// 1cde <__pack_d+0x6a>
    1d0e:	4e08      	lsri      	r0, r6, 8
    1d10:	4798      	lsli      	r4, r7, 24
    1d12:	6d00      	or      	r4, r0
    1d14:	3580      	movi      	r5, 128
    1d16:	4705      	lsli      	r0, r7, 5
    1d18:	6c93      	mov      	r2, r4
    1d1a:	486d      	lsri      	r3, r0, 13
    1d1c:	3400      	movi      	r4, 0
    1d1e:	45ac      	lsli      	r5, r5, 12
    1d20:	6c90      	or      	r2, r4
    1d22:	6cd4      	or      	r3, r5
    1d24:	430c      	lsli      	r0, r3, 12
    1d26:	486c      	lsri      	r3, r0, 12
    1d28:	1198      	lrw      	r4, 0x7ff	// 1e08 <__pack_d+0x194>
    1d2a:	07da      	br      	0x1cde	// 1cde <__pack_d+0x6a>
    1d2c:	3d40      	cmpnei      	r5, 0
    1d2e:	0bc1      	bt      	0x1cb0	// 1cb0 <__pack_d+0x3c>
    1d30:	4241      	lsli      	r2, r2, 1
    1d32:	6898      	and      	r2, r6
    1d34:	3a40      	cmpnei      	r2, 0
    1d36:	0fc2      	bf      	0x1cba	// 1cba <__pack_d+0x46>
    1d38:	3480      	movi      	r4, 128
    1d3a:	3500      	movi      	r5, 0
    1d3c:	6599      	cmplt      	r6, r6
    1d3e:	6191      	addc      	r6, r4
    1d40:	61d5      	addc      	r7, r5
    1d42:	07bc      	br      	0x1cba	// 1cba <__pack_d+0x46>
    1d44:	5a6d      	subu      	r3, r2, r3
    1d46:	3238      	movi      	r2, 56
    1d48:	64c9      	cmplt      	r2, r3
    1d4a:	0bc7      	bt      	0x1cd8	// 1cd8 <__pack_d+0x64>
    1d4c:	3200      	movi      	r2, 0
    1d4e:	2a1f      	subi      	r2, 32
    1d50:	608c      	addu      	r2, r3
    1d52:	3adf      	btsti      	r2, 31
    1d54:	0848      	bt      	0x1de4	// 1de4 <__pack_d+0x170>
    1d56:	6c1f      	mov      	r0, r7
    1d58:	7009      	lsr      	r0, r2
    1d5a:	b800      	st.w      	r0, (r14, 0x0)
    1d5c:	3000      	movi      	r0, 0
    1d5e:	b801      	st.w      	r0, (r14, 0x4)
    1d60:	3adf      	btsti      	r2, 31
    1d62:	083c      	bt      	0x1dda	// 1dda <__pack_d+0x166>
    1d64:	3301      	movi      	r3, 1
    1d66:	70c8      	lsl      	r3, r2
    1d68:	6d4f      	mov      	r5, r3
    1d6a:	3300      	movi      	r3, 0
    1d6c:	6d0f      	mov      	r4, r3
    1d6e:	3200      	movi      	r2, 0
    1d70:	3300      	movi      	r3, 0
    1d72:	2a00      	subi      	r2, 1
    1d74:	2b00      	subi      	r3, 1
    1d76:	6511      	cmplt      	r4, r4
    1d78:	6109      	addc      	r4, r2
    1d7a:	614d      	addc      	r5, r3
    1d7c:	6990      	and      	r6, r4
    1d7e:	69d4      	and      	r7, r5
    1d80:	6d9c      	or      	r6, r7
    1d82:	3e40      	cmpnei      	r6, 0
    1d84:	3000      	movi      	r0, 0
    1d86:	6001      	addc      	r0, r0
    1d88:	6c83      	mov      	r2, r0
    1d8a:	3300      	movi      	r3, 0
    1d8c:	9880      	ld.w      	r4, (r14, 0x0)
    1d8e:	98a1      	ld.w      	r5, (r14, 0x4)
    1d90:	6d08      	or      	r4, r2
    1d92:	6d4c      	or      	r5, r3
    1d94:	32ff      	movi      	r2, 255
    1d96:	3300      	movi      	r3, 0
    1d98:	6890      	and      	r2, r4
    1d9a:	68d4      	and      	r3, r5
    1d9c:	3080      	movi      	r0, 128
    1d9e:	640a      	cmpne      	r2, r0
    1da0:	081b      	bt      	0x1dd6	// 1dd6 <__pack_d+0x162>
    1da2:	3b40      	cmpnei      	r3, 0
    1da4:	0819      	bt      	0x1dd6	// 1dd6 <__pack_d+0x162>
    1da6:	3380      	movi      	r3, 128
    1da8:	4361      	lsli      	r3, r3, 1
    1daa:	68d0      	and      	r3, r4
    1dac:	3b40      	cmpnei      	r3, 0
    1dae:	0c06      	bf      	0x1dba	// 1dba <__pack_d+0x146>
    1db0:	3280      	movi      	r2, 128
    1db2:	3300      	movi      	r3, 0
    1db4:	6511      	cmplt      	r4, r4
    1db6:	6109      	addc      	r4, r2
    1db8:	614d      	addc      	r5, r3
    1dba:	4518      	lsli      	r0, r5, 24
    1dbc:	4c48      	lsri      	r2, r4, 8
    1dbe:	4d68      	lsri      	r3, r5, 8
    1dc0:	1093      	lrw      	r4, 0xfffffff	// 1e0c <__pack_d+0x198>
    1dc2:	6c80      	or      	r2, r0
    1dc4:	6550      	cmphs      	r4, r5
    1dc6:	430c      	lsli      	r0, r3, 12
    1dc8:	486c      	lsri      	r3, r0, 12
    1dca:	3001      	movi      	r0, 1
    1dcc:	0c02      	bf      	0x1dd0	// 1dd0 <__pack_d+0x15c>
    1dce:	3000      	movi      	r0, 0
    1dd0:	108e      	lrw      	r4, 0x7ff	// 1e08 <__pack_d+0x194>
    1dd2:	6900      	and      	r4, r0
    1dd4:	0785      	br      	0x1cde	// 1cde <__pack_d+0x6a>
    1dd6:	327f      	movi      	r2, 127
    1dd8:	07ed      	br      	0x1db2	// 1db2 <__pack_d+0x13e>
    1dda:	3201      	movi      	r2, 1
    1ddc:	708c      	lsl      	r2, r3
    1dde:	3500      	movi      	r5, 0
    1de0:	6d0b      	mov      	r4, r2
    1de2:	07c6      	br      	0x1d6e	// 1d6e <__pack_d+0xfa>
    1de4:	341f      	movi      	r4, 31
    1de6:	610e      	subu      	r4, r3
    1de8:	4701      	lsli      	r0, r7, 1
    1dea:	7010      	lsl      	r0, r4
    1dec:	6d1b      	mov      	r4, r6
    1dee:	710d      	lsr      	r4, r3
    1df0:	6d00      	or      	r4, r0
    1df2:	6c1f      	mov      	r0, r7
    1df4:	700d      	lsr      	r0, r3
    1df6:	b880      	st.w      	r4, (r14, 0x0)
    1df8:	b801      	st.w      	r0, (r14, 0x4)
    1dfa:	07b3      	br      	0x1d60	// 1d60 <__pack_d+0xec>
    1dfc:	fffffc02 	.long	0xfffffc02
    1e00:	000003ff 	.long	0x000003ff
    1e04:	1fffffff 	.long	0x1fffffff
    1e08:	000007ff 	.long	0x000007ff
    1e0c:	0fffffff 	.long	0x0fffffff

00001e10 <__unpack_d>:
    1e10:	1423      	subi      	r14, r14, 12
    1e12:	b880      	st.w      	r4, (r14, 0x0)
    1e14:	b8c1      	st.w      	r6, (r14, 0x4)
    1e16:	b8e2      	st.w      	r7, (r14, 0x8)
    1e18:	8843      	ld.h      	r2, (r0, 0x6)
    1e1a:	4251      	lsli      	r2, r2, 17
    1e1c:	9061      	ld.w      	r3, (r0, 0x4)
    1e1e:	9080      	ld.w      	r4, (r0, 0x0)
    1e20:	4a55      	lsri      	r2, r2, 21
    1e22:	8007      	ld.b      	r0, (r0, 0x7)
    1e24:	436c      	lsli      	r3, r3, 12
    1e26:	4807      	lsri      	r0, r0, 7
    1e28:	3a40      	cmpnei      	r2, 0
    1e2a:	4b6c      	lsri      	r3, r3, 12
    1e2c:	b101      	st.w      	r0, (r1, 0x4)
    1e2e:	0819      	bt      	0x1e60	// 1e60 <__unpack_d+0x50>
    1e30:	6c93      	mov      	r2, r4
    1e32:	6c8c      	or      	r2, r3
    1e34:	3a40      	cmpnei      	r2, 0
    1e36:	0c2d      	bf      	0x1e90	// 1e90 <__unpack_d+0x80>
    1e38:	4c58      	lsri      	r2, r4, 24
    1e3a:	4368      	lsli      	r3, r3, 8
    1e3c:	6cc8      	or      	r3, r2
    1e3e:	3203      	movi      	r2, 3
    1e40:	4408      	lsli      	r0, r4, 8
    1e42:	b140      	st.w      	r2, (r1, 0x0)
    1e44:	1181      	lrw      	r4, 0xfffffc01	// 1ec8 <__unpack_d+0xb8>
    1e46:	11c2      	lrw      	r6, 0xfffffff	// 1ecc <__unpack_d+0xbc>
    1e48:	485f      	lsri      	r2, r0, 31
    1e4a:	4361      	lsli      	r3, r3, 1
    1e4c:	6cc8      	or      	r3, r2
    1e4e:	64d8      	cmphs      	r6, r3
    1e50:	6c93      	mov      	r2, r4
    1e52:	4001      	lsli      	r0, r0, 1
    1e54:	2c00      	subi      	r4, 1
    1e56:	0bf9      	bt      	0x1e48	// 1e48 <__unpack_d+0x38>
    1e58:	b142      	st.w      	r2, (r1, 0x8)
    1e5a:	b103      	st.w      	r0, (r1, 0xc)
    1e5c:	b164      	st.w      	r3, (r1, 0x10)
    1e5e:	0414      	br      	0x1e86	// 1e86 <__unpack_d+0x76>
    1e60:	101c      	lrw      	r0, 0x7ff	// 1ed0 <__unpack_d+0xc0>
    1e62:	640a      	cmpne      	r2, r0
    1e64:	0c19      	bf      	0x1e96	// 1e96 <__unpack_d+0x86>
    1e66:	1019      	lrw      	r0, 0xfffffc01	// 1ec8 <__unpack_d+0xb8>
    1e68:	6080      	addu      	r2, r0
    1e6a:	b142      	st.w      	r2, (r1, 0x8)
    1e6c:	3203      	movi      	r2, 3
    1e6e:	43e8      	lsli      	r7, r3, 8
    1e70:	b140      	st.w      	r2, (r1, 0x0)
    1e72:	3380      	movi      	r3, 128
    1e74:	4c58      	lsri      	r2, r4, 24
    1e76:	6dc8      	or      	r7, r2
    1e78:	44c8      	lsli      	r6, r4, 8
    1e7a:	3200      	movi      	r2, 0
    1e7c:	4375      	lsli      	r3, r3, 21
    1e7e:	6d88      	or      	r6, r2
    1e80:	6dcc      	or      	r7, r3
    1e82:	b1c3      	st.w      	r6, (r1, 0xc)
    1e84:	b1e4      	st.w      	r7, (r1, 0x10)
    1e86:	98e2      	ld.w      	r7, (r14, 0x8)
    1e88:	98c1      	ld.w      	r6, (r14, 0x4)
    1e8a:	9880      	ld.w      	r4, (r14, 0x0)
    1e8c:	1403      	addi      	r14, r14, 12
    1e8e:	783c      	jmp      	r15
    1e90:	3302      	movi      	r3, 2
    1e92:	b160      	st.w      	r3, (r1, 0x0)
    1e94:	07f9      	br      	0x1e86	// 1e86 <__unpack_d+0x76>
    1e96:	6c93      	mov      	r2, r4
    1e98:	6c8c      	or      	r2, r3
    1e9a:	3a40      	cmpnei      	r2, 0
    1e9c:	0c10      	bf      	0x1ebc	// 1ebc <__unpack_d+0xac>
    1e9e:	3280      	movi      	r2, 128
    1ea0:	424c      	lsli      	r2, r2, 12
    1ea2:	688c      	and      	r2, r3
    1ea4:	3a40      	cmpnei      	r2, 0
    1ea6:	0c0e      	bf      	0x1ec2	// 1ec2 <__unpack_d+0xb2>
    1ea8:	3201      	movi      	r2, 1
    1eaa:	b140      	st.w      	r2, (r1, 0x0)
    1eac:	4c58      	lsri      	r2, r4, 24
    1eae:	4368      	lsli      	r3, r3, 8
    1eb0:	6cc8      	or      	r3, r2
    1eb2:	4408      	lsli      	r0, r4, 8
    1eb4:	3b9b      	bclri      	r3, 27
    1eb6:	b103      	st.w      	r0, (r1, 0xc)
    1eb8:	b164      	st.w      	r3, (r1, 0x10)
    1eba:	07e6      	br      	0x1e86	// 1e86 <__unpack_d+0x76>
    1ebc:	3304      	movi      	r3, 4
    1ebe:	b160      	st.w      	r3, (r1, 0x0)
    1ec0:	07e3      	br      	0x1e86	// 1e86 <__unpack_d+0x76>
    1ec2:	b140      	st.w      	r2, (r1, 0x0)
    1ec4:	07f4      	br      	0x1eac	// 1eac <__unpack_d+0x9c>
    1ec6:	0000      	bkpt
    1ec8:	fffffc01 	.long	0xfffffc01
    1ecc:	0fffffff 	.long	0x0fffffff
    1ed0:	000007ff 	.long	0x000007ff

00001ed4 <__fpcmp_parts_d>:
    1ed4:	14c1      	push      	r4
    1ed6:	9060      	ld.w      	r3, (r0, 0x0)
    1ed8:	3b01      	cmphsi      	r3, 2
    1eda:	0c12      	bf      	0x1efe	// 1efe <__fpcmp_parts_d+0x2a>
    1edc:	9140      	ld.w      	r2, (r1, 0x0)
    1ede:	3a01      	cmphsi      	r2, 2
    1ee0:	0c0f      	bf      	0x1efe	// 1efe <__fpcmp_parts_d+0x2a>
    1ee2:	3b44      	cmpnei      	r3, 4
    1ee4:	0c17      	bf      	0x1f12	// 1f12 <__fpcmp_parts_d+0x3e>
    1ee6:	3a44      	cmpnei      	r2, 4
    1ee8:	0c0f      	bf      	0x1f06	// 1f06 <__fpcmp_parts_d+0x32>
    1eea:	3b42      	cmpnei      	r3, 2
    1eec:	0c0b      	bf      	0x1f02	// 1f02 <__fpcmp_parts_d+0x2e>
    1eee:	3a42      	cmpnei      	r2, 2
    1ef0:	0c13      	bf      	0x1f16	// 1f16 <__fpcmp_parts_d+0x42>
    1ef2:	9061      	ld.w      	r3, (r0, 0x4)
    1ef4:	9141      	ld.w      	r2, (r1, 0x4)
    1ef6:	648e      	cmpne      	r3, r2
    1ef8:	0c14      	bf      	0x1f20	// 1f20 <__fpcmp_parts_d+0x4c>
    1efa:	3b40      	cmpnei      	r3, 0
    1efc:	0808      	bt      	0x1f0c	// 1f0c <__fpcmp_parts_d+0x38>
    1efe:	3001      	movi      	r0, 1
    1f00:	1481      	pop      	r4
    1f02:	3a42      	cmpnei      	r2, 2
    1f04:	0c28      	bf      	0x1f54	// 1f54 <__fpcmp_parts_d+0x80>
    1f06:	9161      	ld.w      	r3, (r1, 0x4)
    1f08:	3b40      	cmpnei      	r3, 0
    1f0a:	0bfa      	bt      	0x1efe	// 1efe <__fpcmp_parts_d+0x2a>
    1f0c:	3000      	movi      	r0, 0
    1f0e:	2800      	subi      	r0, 1
    1f10:	1481      	pop      	r4
    1f12:	3a44      	cmpnei      	r2, 4
    1f14:	0c22      	bf      	0x1f58	// 1f58 <__fpcmp_parts_d+0x84>
    1f16:	9061      	ld.w      	r3, (r0, 0x4)
    1f18:	3b40      	cmpnei      	r3, 0
    1f1a:	0bf9      	bt      	0x1f0c	// 1f0c <__fpcmp_parts_d+0x38>
    1f1c:	3001      	movi      	r0, 1
    1f1e:	07f1      	br      	0x1f00	// 1f00 <__fpcmp_parts_d+0x2c>
    1f20:	9082      	ld.w      	r4, (r0, 0x8)
    1f22:	9142      	ld.w      	r2, (r1, 0x8)
    1f24:	6509      	cmplt      	r2, r4
    1f26:	0bea      	bt      	0x1efa	// 1efa <__fpcmp_parts_d+0x26>
    1f28:	6491      	cmplt      	r4, r2
    1f2a:	080d      	bt      	0x1f44	// 1f44 <__fpcmp_parts_d+0x70>
    1f2c:	9044      	ld.w      	r2, (r0, 0x10)
    1f2e:	9083      	ld.w      	r4, (r0, 0xc)
    1f30:	9103      	ld.w      	r0, (r1, 0xc)
    1f32:	9124      	ld.w      	r1, (r1, 0x10)
    1f34:	6484      	cmphs      	r1, r2
    1f36:	0fe2      	bf      	0x1efa	// 1efa <__fpcmp_parts_d+0x26>
    1f38:	644a      	cmpne      	r2, r1
    1f3a:	0803      	bt      	0x1f40	// 1f40 <__fpcmp_parts_d+0x6c>
    1f3c:	6500      	cmphs      	r0, r4
    1f3e:	0fde      	bf      	0x1efa	// 1efa <__fpcmp_parts_d+0x26>
    1f40:	6448      	cmphs      	r2, r1
    1f42:	0805      	bt      	0x1f4c	// 1f4c <__fpcmp_parts_d+0x78>
    1f44:	3b40      	cmpnei      	r3, 0
    1f46:	0fe3      	bf      	0x1f0c	// 1f0c <__fpcmp_parts_d+0x38>
    1f48:	3001      	movi      	r0, 1
    1f4a:	07db      	br      	0x1f00	// 1f00 <__fpcmp_parts_d+0x2c>
    1f4c:	6486      	cmpne      	r1, r2
    1f4e:	0803      	bt      	0x1f54	// 1f54 <__fpcmp_parts_d+0x80>
    1f50:	6410      	cmphs      	r4, r0
    1f52:	0ff9      	bf      	0x1f44	// 1f44 <__fpcmp_parts_d+0x70>
    1f54:	3000      	movi      	r0, 0
    1f56:	1481      	pop      	r4
    1f58:	9161      	ld.w      	r3, (r1, 0x4)
    1f5a:	9041      	ld.w      	r2, (r0, 0x4)
    1f5c:	5b09      	subu      	r0, r3, r2
    1f5e:	1481      	pop      	r4

00001f60 <__memset_fast>:
    1f60:	14c3      	push      	r4-r6
    1f62:	7444      	zextb      	r1, r1
    1f64:	3a40      	cmpnei      	r2, 0
    1f66:	0c1f      	bf      	0x1fa4	// 1fa4 <__memset_fast+0x44>
    1f68:	6d43      	mov      	r5, r0
    1f6a:	6d03      	mov      	r4, r0
    1f6c:	3603      	movi      	r6, 3
    1f6e:	6918      	and      	r4, r6
    1f70:	3c40      	cmpnei      	r4, 0
    1f72:	0c1a      	bf      	0x1fa6	// 1fa6 <__memset_fast+0x46>
    1f74:	a520      	st.b      	r1, (r5, 0x0)
    1f76:	2a00      	subi      	r2, 1
    1f78:	3a40      	cmpnei      	r2, 0
    1f7a:	0c15      	bf      	0x1fa4	// 1fa4 <__memset_fast+0x44>
    1f7c:	2500      	addi      	r5, 1
    1f7e:	6d17      	mov      	r4, r5
    1f80:	3603      	movi      	r6, 3
    1f82:	6918      	and      	r4, r6
    1f84:	3c40      	cmpnei      	r4, 0
    1f86:	0c10      	bf      	0x1fa6	// 1fa6 <__memset_fast+0x46>
    1f88:	a520      	st.b      	r1, (r5, 0x0)
    1f8a:	2a00      	subi      	r2, 1
    1f8c:	3a40      	cmpnei      	r2, 0
    1f8e:	0c0b      	bf      	0x1fa4	// 1fa4 <__memset_fast+0x44>
    1f90:	2500      	addi      	r5, 1
    1f92:	6d17      	mov      	r4, r5
    1f94:	3603      	movi      	r6, 3
    1f96:	6918      	and      	r4, r6
    1f98:	3c40      	cmpnei      	r4, 0
    1f9a:	0c06      	bf      	0x1fa6	// 1fa6 <__memset_fast+0x46>
    1f9c:	a520      	st.b      	r1, (r5, 0x0)
    1f9e:	2a00      	subi      	r2, 1
    1fa0:	2500      	addi      	r5, 1
    1fa2:	0402      	br      	0x1fa6	// 1fa6 <__memset_fast+0x46>
    1fa4:	1483      	pop      	r4-r6
    1fa6:	4168      	lsli      	r3, r1, 8
    1fa8:	6c4c      	or      	r1, r3
    1faa:	4170      	lsli      	r3, r1, 16
    1fac:	6c4c      	or      	r1, r3
    1fae:	3a2f      	cmplti      	r2, 16
    1fb0:	0809      	bt      	0x1fc2	// 1fc2 <__memset_fast+0x62>
    1fb2:	b520      	st.w      	r1, (r5, 0x0)
    1fb4:	b521      	st.w      	r1, (r5, 0x4)
    1fb6:	b522      	st.w      	r1, (r5, 0x8)
    1fb8:	b523      	st.w      	r1, (r5, 0xc)
    1fba:	2a0f      	subi      	r2, 16
    1fbc:	250f      	addi      	r5, 16
    1fbe:	3a2f      	cmplti      	r2, 16
    1fc0:	0ff9      	bf      	0x1fb2	// 1fb2 <__memset_fast+0x52>
    1fc2:	3a23      	cmplti      	r2, 4
    1fc4:	0806      	bt      	0x1fd0	// 1fd0 <__memset_fast+0x70>
    1fc6:	2a03      	subi      	r2, 4
    1fc8:	b520      	st.w      	r1, (r5, 0x0)
    1fca:	2503      	addi      	r5, 4
    1fcc:	3a23      	cmplti      	r2, 4
    1fce:	0ffc      	bf      	0x1fc6	// 1fc6 <__memset_fast+0x66>
    1fd0:	3a40      	cmpnei      	r2, 0
    1fd2:	0fe9      	bf      	0x1fa4	// 1fa4 <__memset_fast+0x44>
    1fd4:	2a00      	subi      	r2, 1
    1fd6:	a520      	st.b      	r1, (r5, 0x0)
    1fd8:	3a40      	cmpnei      	r2, 0
    1fda:	0fe5      	bf      	0x1fa4	// 1fa4 <__memset_fast+0x44>
    1fdc:	2a00      	subi      	r2, 1
    1fde:	a521      	st.b      	r1, (r5, 0x1)
    1fe0:	3a40      	cmpnei      	r2, 0
    1fe2:	0fe1      	bf      	0x1fa4	// 1fa4 <__memset_fast+0x44>
    1fe4:	a522      	st.b      	r1, (r5, 0x2)
    1fe6:	1483      	pop      	r4-r6

00001fe8 <__memcpy_fast>:
    1fe8:	14c3      	push      	r4-r6
    1fea:	6d83      	mov      	r6, r0
    1fec:	6d07      	mov      	r4, r1
    1fee:	6d18      	or      	r4, r6
    1ff0:	3303      	movi      	r3, 3
    1ff2:	690c      	and      	r4, r3
    1ff4:	3c40      	cmpnei      	r4, 0
    1ff6:	0c0b      	bf      	0x200c	// 200c <__memcpy_fast+0x24>
    1ff8:	3a40      	cmpnei      	r2, 0
    1ffa:	0c08      	bf      	0x200a	// 200a <__memcpy_fast+0x22>
    1ffc:	8160      	ld.b      	r3, (r1, 0x0)
    1ffe:	2100      	addi      	r1, 1
    2000:	2a00      	subi      	r2, 1
    2002:	a660      	st.b      	r3, (r6, 0x0)
    2004:	2600      	addi      	r6, 1
    2006:	3a40      	cmpnei      	r2, 0
    2008:	0bfa      	bt      	0x1ffc	// 1ffc <__memcpy_fast+0x14>
    200a:	1483      	pop      	r4-r6
    200c:	3a2f      	cmplti      	r2, 16
    200e:	080e      	bt      	0x202a	// 202a <__memcpy_fast+0x42>
    2010:	91a0      	ld.w      	r5, (r1, 0x0)
    2012:	9161      	ld.w      	r3, (r1, 0x4)
    2014:	9182      	ld.w      	r4, (r1, 0x8)
    2016:	b6a0      	st.w      	r5, (r6, 0x0)
    2018:	91a3      	ld.w      	r5, (r1, 0xc)
    201a:	b661      	st.w      	r3, (r6, 0x4)
    201c:	b682      	st.w      	r4, (r6, 0x8)
    201e:	b6a3      	st.w      	r5, (r6, 0xc)
    2020:	2a0f      	subi      	r2, 16
    2022:	210f      	addi      	r1, 16
    2024:	260f      	addi      	r6, 16
    2026:	3a2f      	cmplti      	r2, 16
    2028:	0ff4      	bf      	0x2010	// 2010 <__memcpy_fast+0x28>
    202a:	3a23      	cmplti      	r2, 4
    202c:	0808      	bt      	0x203c	// 203c <__memcpy_fast+0x54>
    202e:	9160      	ld.w      	r3, (r1, 0x0)
    2030:	2a03      	subi      	r2, 4
    2032:	2103      	addi      	r1, 4
    2034:	b660      	st.w      	r3, (r6, 0x0)
    2036:	2603      	addi      	r6, 4
    2038:	3a23      	cmplti      	r2, 4
    203a:	0ffa      	bf      	0x202e	// 202e <__memcpy_fast+0x46>
    203c:	3a40      	cmpnei      	r2, 0
    203e:	0fe6      	bf      	0x200a	// 200a <__memcpy_fast+0x22>
    2040:	8160      	ld.b      	r3, (r1, 0x0)
    2042:	2100      	addi      	r1, 1
    2044:	2a00      	subi      	r2, 1
    2046:	a660      	st.b      	r3, (r6, 0x0)
    2048:	2600      	addi      	r6, 1
    204a:	07f9      	br      	0x203c	// 203c <__memcpy_fast+0x54>

Disassembly of section .text.__main:

0000204c <__main>:
extern char _bss_start[];
extern char _ebss[];


void __main( void ) 
{
    204c:	14d0      	push      	r15

  /* if the start of data (dst)
     is not equal to end of text (src) then
     copy it, else it's already in the right place
     */
  if( _start_data != _end_rodata ) {
    204e:	1009      	lrw      	r0, 0x20000000	// 2070 <__main+0x24>
    2050:	1029      	lrw      	r1, 0x979c	// 2074 <__main+0x28>
    2052:	6442      	cmpne      	r0, r1
    2054:	0c05      	bf      	0x205e	// 205e <__main+0x12>
//    __memcpy_fast( dst, src, (_end_data - _start_data));
    memcpy( dst, src, (_end_data - _start_data));
    2056:	1049      	lrw      	r2, 0x200000f8	// 2078 <__main+0x2c>
    2058:	6082      	subu      	r2, r0
    205a:	e3ffffc7 	bsr      	0x1fe8	// 1fe8 <__memcpy_fast>
  }

  /* zero the bss 
   */
  if( _ebss - _bss_start ) {
    205e:	1048      	lrw      	r2, 0x2000050c	// 207c <__main+0x30>
    2060:	1008      	lrw      	r0, 0x200000f8	// 2080 <__main+0x34>
    2062:	640a      	cmpne      	r2, r0
    2064:	0c05      	bf      	0x206e	// 206e <__main+0x22>
//    __memset_fast( _bss_start, 0x00, ( _ebss - _bss_start ));
    memset( _bss_start, 0x00, ( _ebss - _bss_start ));
    2066:	6082      	subu      	r2, r0
    2068:	3100      	movi      	r1, 0
    206a:	e3ffff7b 	bsr      	0x1f60	// 1f60 <__memset_fast>
  }

	
}
    206e:	1490      	pop      	r15
    2070:	20000000 	.long	0x20000000
    2074:	0000979c 	.long	0x0000979c
    2078:	200000f8 	.long	0x200000f8
    207c:	2000050c 	.long	0x2000050c
    2080:	200000f8 	.long	0x200000f8

Disassembly of section .text.__putchar__:

00002084 <__putchar__>:
#define _debug_uart_io
/******************************************************************************
 * Main code
 ******************************************************************************/
void __putchar__(char ch)
{
    2084:	14d0      	push      	r15
#ifdef _debug_uart_io
    // UARTTxByte(UART0,s);			//uart 0
    UARTTxByte(UART1, ch); // uart 1
    2086:	1064      	lrw      	r3, 0x2000003c	// 2094 <__putchar__+0x10>
{
    2088:	6c43      	mov      	r1, r0
    UARTTxByte(UART1, ch); // uart 1
    208a:	9300      	ld.w      	r0, (r3, 0x0)
    208c:	e0000731 	bsr      	0x2eee	// 2eee <UARTTxByte>
    volatile unsigned int *pdata = (unsigned int *)LDCC_DATA_P;
    while (*pdata & LDCC_BIT_STATUS)
        ; // Waiting for data read.
    *pdata = ch;
#endif
}
    2090:	1490      	pop      	r15
    2092:	0000      	bkpt
    2094:	2000003c 	.long	0x2000003c

Disassembly of section .text.myitoa:

00002098 <myitoa>:

char *myitoa(int value, int *string, int radix)
{
    2098:	14d4      	push      	r4-r7, r15
    209a:	1524      	subi      	r14, r14, 144
    209c:	6d47      	mov      	r5, r1
    int i;
    unsigned v;
    int sign;
    int *sp;

    if (radix > 36 || radix <= 1)
    209e:	3322      	movi      	r3, 34
    20a0:	5a27      	subi      	r1, r2, 2
    20a2:	644c      	cmphs      	r3, r1
    20a4:	0c3b      	bf      	0x211a	// 211a <myitoa+0x82>
    {
        return 0;
    }

    sign = (radix == 10 && value < 0);
    20a6:	3a4a      	cmpnei      	r2, 10
    20a8:	083b      	bt      	0x211e	// 211e <myitoa+0x86>
    20aa:	38df      	btsti      	r0, 31
    20ac:	0c39      	bf      	0x211e	// 211e <myitoa+0x86>
    if (sign)
        v = -value;
    20ae:	3400      	movi      	r4, 0
    20b0:	6102      	subu      	r4, r0
    sign = (radix == 10 && value < 0);
    20b2:	3301      	movi      	r3, 1
    20b4:	1f03      	addi      	r7, r14, 12
    else
        v = (unsigned)value;
    20b6:	b860      	st.w      	r3, (r14, 0x0)
    20b8:	6cdf      	mov      	r3, r7
    20ba:	0415      	br      	0x20e4	// 20e4 <myitoa+0x4c>
    while (v || tp == tmp)
    {
        i = v % radix;
    20bc:	6c4b      	mov      	r1, r2
    20be:	6c13      	mov      	r0, r4
    20c0:	b862      	st.w      	r3, (r14, 0x8)
    20c2:	b841      	st.w      	r2, (r14, 0x4)
    20c4:	e0000d6e 	bsr      	0x3ba0	// 3ba0 <__umodsi3>
        v = v / radix;
    20c8:	9841      	ld.w      	r2, (r14, 0x4)
        i = v % radix;
    20ca:	6d83      	mov      	r6, r0
        v = v / radix;
    20cc:	6c4b      	mov      	r1, r2
    20ce:	6c13      	mov      	r0, r4
    20d0:	e0000d56 	bsr      	0x3b7c	// 3b7c <__udivsi3>
        if (i < 10)
    20d4:	3e09      	cmphsi      	r6, 10
        v = v / radix;
    20d6:	6d03      	mov      	r4, r0
        if (i < 10)
    20d8:	9841      	ld.w      	r2, (r14, 0x4)
    20da:	9862      	ld.w      	r3, (r14, 0x8)
    20dc:	0816      	bt      	0x2108	// 2108 <myitoa+0x70>
        {
            *tp++ = i + '0';
    20de:	262f      	addi      	r6, 48
        }
        else
        {
            *tp++ = i + 'a' - 10;
    20e0:	b7c0      	st.w      	r6, (r7, 0x0)
    20e2:	2703      	addi      	r7, 4
    while (v || tp == tmp)
    20e4:	3c40      	cmpnei      	r4, 0
    20e6:	6c5f      	mov      	r1, r7
    20e8:	0bea      	bt      	0x20bc	// 20bc <myitoa+0x24>
    20ea:	65ce      	cmpne      	r3, r7
    20ec:	0fe8      	bf      	0x20bc	// 20bc <myitoa+0x24>
        }
    }

    sp = string;

    if (sign)
    20ee:	9840      	ld.w      	r2, (r14, 0x0)
    20f0:	3a40      	cmpnei      	r2, 0
    20f2:	0c0d      	bf      	0x210c	// 210c <myitoa+0x74>
        *sp++ = '-';
    20f4:	302d      	movi      	r0, 45
    20f6:	5d4e      	addi      	r2, r5, 4
    20f8:	b500      	st.w      	r0, (r5, 0x0)
    while (tp > tmp)
    20fa:	644c      	cmphs      	r3, r1
    20fc:	0c0a      	bf      	0x2110	// 2110 <myitoa+0x78>
        *sp++ = *--tp;
    *sp = 0;
    20fe:	3300      	movi      	r3, 0
    2100:	b260      	st.w      	r3, (r2, 0x0)
    return string;
    2102:	6c17      	mov      	r0, r5
}
    2104:	1504      	addi      	r14, r14, 144
    2106:	1494      	pop      	r4-r7, r15
            *tp++ = i + 'a' - 10;
    2108:	2656      	addi      	r6, 87
    210a:	07eb      	br      	0x20e0	// 20e0 <myitoa+0x48>
    210c:	6c97      	mov      	r2, r5
    210e:	07f6      	br      	0x20fa	// 20fa <myitoa+0x62>
        *sp++ = *--tp;
    2110:	2903      	subi      	r1, 4
    2112:	9100      	ld.w      	r0, (r1, 0x0)
    2114:	b200      	st.w      	r0, (r2, 0x0)
    2116:	2203      	addi      	r2, 4
    2118:	07f1      	br      	0x20fa	// 20fa <myitoa+0x62>
        return 0;
    211a:	3000      	movi      	r0, 0
    211c:	07f4      	br      	0x2104	// 2104 <myitoa+0x6c>
        v = (unsigned)value;
    211e:	6d03      	mov      	r4, r0
    2120:	3300      	movi      	r3, 0
    2122:	07c9      	br      	0x20b4	// 20b4 <myitoa+0x1c>

Disassembly of section .text.my_printf:

00002124 <my_printf>:

void my_printf(const char *fmt, ...)
{
    2124:	1424      	subi      	r14, r14, 16
    2126:	b863      	st.w      	r3, (r14, 0xc)
    2128:	b842      	st.w      	r2, (r14, 0x8)
    212a:	b821      	st.w      	r1, (r14, 0x4)
    212c:	b800      	st.w      	r0, (r14, 0x0)
    212e:	14d3      	push      	r4-r6, r15
    2130:	1430      	subi      	r14, r14, 64
    2132:	98b4      	ld.w      	r5, (r14, 0x50)
    int d;
    // char ch, *pbuf, buf[16];
    char ch, *pbuf;
    int buf[16];
    va_list ap;
    va_start(ap, fmt);
    2134:	1c15      	addi      	r4, r14, 84
    while (*fmt)
    2136:	8500      	ld.b      	r0, (r5, 0x0)
    2138:	3840      	cmpnei      	r0, 0
    213a:	0809      	bt      	0x214c	// 214c <my_printf+0x28>
            break;
        }
        fmt++;
    }
    va_end(ap);
}
    213c:	1410      	addi      	r14, r14, 64
    213e:	d9ee2003 	ld.w      	r15, (r14, 0xc)
    2142:	98c2      	ld.w      	r6, (r14, 0x8)
    2144:	98a1      	ld.w      	r5, (r14, 0x4)
    2146:	9880      	ld.w      	r4, (r14, 0x0)
    2148:	1408      	addi      	r14, r14, 32
    214a:	783c      	jmp      	r15
        if (*fmt != '%')
    214c:	3325      	movi      	r3, 37
    214e:	64c2      	cmpne      	r0, r3
    2150:	0c05      	bf      	0x215a	// 215a <my_printf+0x36>
            __putchar__(*fmt++);
    2152:	2500      	addi      	r5, 1
    2154:	e3ffff98 	bsr      	0x2084	// 2084 <__putchar__>
            continue;
    2158:	07ef      	br      	0x2136	// 2136 <my_printf+0x12>
        switch (*++fmt)
    215a:	8501      	ld.b      	r0, (r5, 0x1)
    215c:	3363      	movi      	r3, 99
    215e:	64c2      	cmpne      	r0, r3
    2160:	0c40      	bf      	0x21e0	// 21e0 <my_printf+0xbc>
    2162:	640c      	cmphs      	r3, r0
    2164:	0c0a      	bf      	0x2178	// 2178 <my_printf+0x54>
    2166:	3343      	movi      	r3, 67
    2168:	64c2      	cmpne      	r0, r3
    216a:	0c3b      	bf      	0x21e0	// 21e0 <my_printf+0xbc>
    216c:	3358      	movi      	r3, 88
    216e:	64c2      	cmpne      	r0, r3
    2170:	0c29      	bf      	0x21c2	// 21c2 <my_printf+0x9e>
            __putchar__(*fmt);
    2172:	e3ffff89 	bsr      	0x2084	// 2084 <__putchar__>
            break;
    2176:	041f      	br      	0x21b4	// 21b4 <my_printf+0x90>
        switch (*++fmt)
    2178:	3373      	movi      	r3, 115
    217a:	64c2      	cmpne      	r0, r3
    217c:	0c16      	bf      	0x21a8	// 21a8 <my_printf+0x84>
    217e:	3378      	movi      	r3, 120
    2180:	64c2      	cmpne      	r0, r3
    2182:	0c20      	bf      	0x21c2	// 21c2 <my_printf+0x9e>
    2184:	3364      	movi      	r3, 100
    2186:	64c2      	cmpne      	r0, r3
    2188:	0bf5      	bt      	0x2172	// 2172 <my_printf+0x4e>
            myitoa(d, buf, 10);
    218a:	9400      	ld.w      	r0, (r4, 0x0)
    218c:	320a      	movi      	r2, 10
    218e:	6c7b      	mov      	r1, r14
            d = va_arg(ap, int);
    2190:	5cce      	addi      	r6, r4, 4
            myitoa(d, buf, 10);
    2192:	e3ffff83 	bsr      	0x2098	// 2098 <myitoa>
            for (s = buf; *s; s++)
    2196:	6d3b      	mov      	r4, r14
    2198:	9400      	ld.w      	r0, (r4, 0x0)
    219a:	3840      	cmpnei      	r0, 0
    219c:	0c0b      	bf      	0x21b2	// 21b2 <my_printf+0x8e>
                __putchar__(*s);
    219e:	7400      	zextb      	r0, r0
    21a0:	e3ffff72 	bsr      	0x2084	// 2084 <__putchar__>
            for (s = buf; *s; s++)
    21a4:	2403      	addi      	r4, 4
    21a6:	07f9      	br      	0x2198	// 2198 <my_printf+0x74>
            s = va_arg(ap, const char *);
    21a8:	5cce      	addi      	r6, r4, 4
    21aa:	9480      	ld.w      	r4, (r4, 0x0)
            for (; *s; s++)
    21ac:	9400      	ld.w      	r0, (r4, 0x0)
    21ae:	3840      	cmpnei      	r0, 0
    21b0:	0804      	bt      	0x21b8	// 21b8 <my_printf+0x94>
            ch = (unsigned char)va_arg(ap, int);
    21b2:	6d1b      	mov      	r4, r6
        fmt++;
    21b4:	2501      	addi      	r5, 2
    21b6:	07c0      	br      	0x2136	// 2136 <my_printf+0x12>
                __putchar__(*s);
    21b8:	7400      	zextb      	r0, r0
    21ba:	e3ffff65 	bsr      	0x2084	// 2084 <__putchar__>
            for (; *s; s++)
    21be:	2403      	addi      	r4, 4
    21c0:	07f6      	br      	0x21ac	// 21ac <my_printf+0x88>
            myitoa(d, buf, 16);
    21c2:	9400      	ld.w      	r0, (r4, 0x0)
    21c4:	3210      	movi      	r2, 16
    21c6:	6c7b      	mov      	r1, r14
            d = va_arg(ap, int);
    21c8:	5cce      	addi      	r6, r4, 4
            myitoa(d, buf, 16);
    21ca:	e3ffff67 	bsr      	0x2098	// 2098 <myitoa>
            for (s = buf; *s; s++)
    21ce:	6d3b      	mov      	r4, r14
    21d0:	9400      	ld.w      	r0, (r4, 0x0)
    21d2:	3840      	cmpnei      	r0, 0
    21d4:	0fef      	bf      	0x21b2	// 21b2 <my_printf+0x8e>
                __putchar__(*s);
    21d6:	7400      	zextb      	r0, r0
    21d8:	e3ffff56 	bsr      	0x2084	// 2084 <__putchar__>
            for (s = buf; *s; s++)
    21dc:	2403      	addi      	r4, 4
    21de:	07f9      	br      	0x21d0	// 21d0 <my_printf+0xac>
            __putchar__(*pbuf);
    21e0:	8400      	ld.b      	r0, (r4, 0x0)
            ch = (unsigned char)va_arg(ap, int);
    21e2:	5cce      	addi      	r6, r4, 4
            __putchar__(*pbuf);
    21e4:	e3ffff50 	bsr      	0x2084	// 2084 <__putchar__>
    21e8:	07e5      	br      	0x21b2	// 21b2 <my_printf+0x8e>

Disassembly of section .text.ADC12_Control:

000021ec <ADC12_Control>:
//ReturnValue:NONE
/*************************************************************/  
  //control:ADC enable/disable ,start/stop,swrst
void ADC12_Control(ADC12_Control_TypeDef ADC12_Control_x )
{
	ADC0->CR |= ADC12_Control_x;							// 
    21ec:	1063      	lrw      	r3, 0x20000050	// 21f8 <ADC12_Control+0xc>
    21ee:	9340      	ld.w      	r2, (r3, 0x0)
    21f0:	9264      	ld.w      	r3, (r2, 0x10)
    21f2:	6c0c      	or      	r0, r3
    21f4:	b204      	st.w      	r0, (r2, 0x10)
}
    21f6:	783c      	jmp      	r15
    21f8:	20000050 	.long	0x20000050

Disassembly of section .text.ADC12_CMD.part.0:

000021fc <ADC12_CMD.part.0>:
//ADC12 ENABLE
//EntryParameter:NewState
//NewState:ENABLE , DISABLE
//ReturnValue:NONE
/*************************************************************/ 
void ADC12_CMD(FunctionalStatus NewState)
    21fc:	14d0      	push      	r15
{
	if (NewState != DISABLE)
	{
		ADC12_Control(ADC12_ADCEN);						//ADC12 ENABLE
    21fe:	3002      	movi      	r0, 2
    2200:	e3fffff6 	bsr      	0x21ec	// 21ec <ADC12_Control>
		while(!(ADC0->SR &ADC12_ADCENS));
    2204:	1065      	lrw      	r3, 0x20000050	// 2218 <ADC12_CMD.part.0+0x1c>
    2206:	3280      	movi      	r2, 128
    2208:	9320      	ld.w      	r1, (r3, 0x0)
    220a:	4241      	lsli      	r2, r2, 1
    220c:	9168      	ld.w      	r3, (r1, 0x20)
    220e:	68c8      	and      	r3, r2
    2210:	3b40      	cmpnei      	r3, 0
    2212:	0ffd      	bf      	0x220c	// 220c <ADC12_CMD.part.0+0x10>
	else
	{
		ADC12_Control(ADC12_ADCDIS);					//ADC12 DISABLE
		while(ADC0->SR&ADC12_ADCENS);
	}
}
    2214:	1490      	pop      	r15
    2216:	0000      	bkpt
    2218:	20000050 	.long	0x20000050

Disassembly of section .text.ADC12_CLK_CMD:

0000221c <ADC12_CLK_CMD>:
	if (NewState != DISABLE)
    221c:	3940      	cmpnei      	r1, 0
    221e:	106a      	lrw      	r3, 0x20000050	// 2244 <ADC12_CLK_CMD+0x28>
		ADC0->ECR  |= ADC_CLK_CMD;						//ENABLE
    2220:	9340      	ld.w      	r2, (r3, 0x0)
	if (NewState != DISABLE)
    2222:	0c09      	bf      	0x2234	// 2234 <ADC12_CLK_CMD+0x18>
		ADC0->ECR  |= ADC_CLK_CMD;						//ENABLE
    2224:	9260      	ld.w      	r3, (r2, 0x0)
    2226:	6cc0      	or      	r3, r0
    2228:	b260      	st.w      	r3, (r2, 0x0)
		while(!(ADC0->PMSR&ADC_CLK_CMD));
    222a:	9262      	ld.w      	r3, (r2, 0x8)
    222c:	68c0      	and      	r3, r0
    222e:	3b40      	cmpnei      	r3, 0
    2230:	0ffd      	bf      	0x222a	// 222a <ADC12_CLK_CMD+0xe>
}
    2232:	783c      	jmp      	r15
		ADC0->DCR  |= ADC_CLK_CMD;						//DISABLE
    2234:	9261      	ld.w      	r3, (r2, 0x4)
    2236:	6cc0      	or      	r3, r0
    2238:	b261      	st.w      	r3, (r2, 0x4)
		while(ADC0->PMSR&ADC_CLK_CMD);
    223a:	9262      	ld.w      	r3, (r2, 0x8)
    223c:	68c0      	and      	r3, r0
    223e:	3b40      	cmpnei      	r3, 0
    2240:	0bfd      	bt      	0x223a	// 223a <ADC12_CLK_CMD+0x1e>
    2242:	07f8      	br      	0x2232	// 2232 <ADC12_CLK_CMD+0x16>
    2244:	20000050 	.long	0x20000050

Disassembly of section .text.ADC12_Software_Reset:

00002248 <ADC12_Software_Reset>:
{
    2248:	14d0      	push      	r15
	ADC12_Control(ADC12_SWRST);
    224a:	3001      	movi      	r0, 1
    224c:	e3ffffd0 	bsr      	0x21ec	// 21ec <ADC12_Control>
}
    2250:	1490      	pop      	r15

Disassembly of section .text.ADC12_CMD:

00002254 <ADC12_CMD>:
{
    2254:	14d0      	push      	r15
	if (NewState != DISABLE)
    2256:	3840      	cmpnei      	r0, 0
    2258:	0c04      	bf      	0x2260	// 2260 <ADC12_CMD+0xc>
    225a:	e3ffffd1 	bsr      	0x21fc	// 21fc <ADC12_CMD.part.0>
}
    225e:	1490      	pop      	r15
		ADC12_Control(ADC12_ADCDIS);					//ADC12 DISABLE
    2260:	3004      	movi      	r0, 4
    2262:	e3ffffc5 	bsr      	0x21ec	// 21ec <ADC12_Control>
		while(ADC0->SR&ADC12_ADCENS);
    2266:	1065      	lrw      	r3, 0x20000050	// 2278 <ADC12_CMD+0x24>
    2268:	3280      	movi      	r2, 128
    226a:	9320      	ld.w      	r1, (r3, 0x0)
    226c:	4241      	lsli      	r2, r2, 1
    226e:	9168      	ld.w      	r3, (r1, 0x20)
    2270:	68c8      	and      	r3, r2
    2272:	3b40      	cmpnei      	r3, 0
    2274:	0bfd      	bt      	0x226e	// 226e <ADC12_CMD+0x1a>
    2276:	07f4      	br      	0x225e	// 225e <ADC12_CMD+0xa>
    2278:	20000050 	.long	0x20000050

Disassembly of section .text.ADC12_ready_wait:

0000227c <ADC12_ready_wait>:
//EntryParameter:NONE
//ReturnValue:ADC12 READ FLAG
/*************************************************************/ 
void ADC12_ready_wait(void)  
{
	while(!(ADC0->SR&ADC12_READY));   					// Waiting for ADC0 Ready
    227c:	1064      	lrw      	r3, 0x20000050	// 228c <ADC12_ready_wait+0x10>
    227e:	3202      	movi      	r2, 2
    2280:	9320      	ld.w      	r1, (r3, 0x0)
    2282:	9168      	ld.w      	r3, (r1, 0x20)
    2284:	68c8      	and      	r3, r2
    2286:	3b40      	cmpnei      	r3, 0
    2288:	0ffd      	bf      	0x2282	// 2282 <ADC12_ready_wait+0x6>
}
    228a:	783c      	jmp      	r15
    228c:	20000050 	.long	0x20000050

Disassembly of section .text.ADC12_SEQEND_wait:

00002290 <ADC12_SEQEND_wait>:
//EntryParameter:NONE
//ReturnValue:ADC12 EOC
/*************************************************************/ 
void ADC12_SEQEND_wait(U8_T val)
{
	while(!(ADC0->SR & (0x01ul << (16+val))));			// EOC wait
    2290:	200f      	addi      	r0, 16
    2292:	1065      	lrw      	r3, 0x20000050	// 22a4 <ADC12_SEQEND_wait+0x14>
    2294:	3201      	movi      	r2, 1
    2296:	9320      	ld.w      	r1, (r3, 0x0)
    2298:	7080      	lsl      	r2, r0
    229a:	9168      	ld.w      	r3, (r1, 0x20)
    229c:	68c8      	and      	r3, r2
    229e:	3b40      	cmpnei      	r3, 0
    22a0:	0ffd      	bf      	0x229a	// 229a <ADC12_SEQEND_wait+0xa>
}  
    22a2:	783c      	jmp      	r15
    22a4:	20000050 	.long	0x20000050

Disassembly of section .text.ADC12_Configure_Mode:

000022a8 <ADC12_Configure_Mode>:
  //10BIT or 12BIT adc ;
  //ADC12_BIT_SELECTED:ADC12_12BIT/ADC12_10BIT;
  //ADC12_ConverMode:One_shot_mode/Continuous_mode;
  //adc date output=last number of Conversions;
void  ADC12_Configure_Mode(ADC12_10bitor12bit_TypeDef ADC12_BIT_SELECTED  , ADC12_ConverMode_TypeDef  ADC12_ConverMode  , U8_T ADC12_PRI, U8_T adc12_SHR , U8_T ADC12_DIV , U8_T NumConver ) 
{
    22a8:	14d4      	push      	r4-r7, r15
    22aa:	1422      	subi      	r14, r14, 8
    22ac:	1c08      	addi      	r4, r14, 32
    22ae:	84a0      	ld.b      	r5, (r4, 0x0)
	ADC0->MR=ADC12_DIV|((NumConver-1)<<10);
    22b0:	2d00      	subi      	r5, 1
{
    22b2:	6dc3      	mov      	r7, r0
	ADC0->MR=ADC12_DIV|((NumConver-1)<<10);
    22b4:	10db      	lrw      	r6, 0x20000050	// 2320 <ADC12_Configure_Mode+0x78>
{
    22b6:	d80e001c 	ld.b      	r0, (r14, 0x1c)
	ADC0->MR=ADC12_DIV|((NumConver-1)<<10);
    22ba:	45aa      	lsli      	r5, r5, 10
    22bc:	9680      	ld.w      	r4, (r6, 0x0)
    22be:	6d40      	or      	r5, r0
	if(ADC12_ConverMode==One_shot_mode)
    22c0:	3940      	cmpnei      	r1, 0
	ADC0->MR=ADC12_DIV|((NumConver-1)<<10);
    22c2:	b4a5      	st.w      	r5, (r4, 0x14)
	if(ADC12_ConverMode==One_shot_mode)
    22c4:	081c      	bt      	0x22fc	// 22fc <ADC12_Configure_Mode+0x54>
	{
		ADC0->MR&=~CONTCV;								//one short mode
    22c6:	9425      	ld.w      	r1, (r4, 0x14)
    22c8:	4121      	lsli      	r1, r1, 1
    22ca:	4921      	lsri      	r1, r1, 1
		while(ADC0->SR&ADC12_CTCVS);							
    22cc:	3080      	movi      	r0, 128
		ADC0->MR&=~CONTCV;								//one short mode
    22ce:	b425      	st.w      	r1, (r4, 0x14)
		while(ADC0->SR&ADC12_CTCVS);							
    22d0:	4002      	lsli      	r0, r0, 2
    22d2:	9428      	ld.w      	r1, (r4, 0x20)
    22d4:	6840      	and      	r1, r0
    22d6:	3940      	cmpnei      	r1, 0
    22d8:	0bfd      	bt      	0x22d2	// 22d2 <ADC12_Configure_Mode+0x2a>
    22da:	b861      	st.w      	r3, (r14, 0x4)
    22dc:	b840      	st.w      	r2, (r14, 0x0)
    22de:	e3ffff8f 	bsr      	0x21fc	// 21fc <ADC12_CMD.part.0>
	{
		ADC0->MR|=CONTCV;								//Continuous mode
		while(!(ADC0->SR&ADC12_CTCVS));							
	}
	ADC12_CMD(ENABLE);									//ADC0 enable
	if(ADC12_BIT_SELECTED)
    22e2:	3f40      	cmpnei      	r7, 0
    22e4:	9840      	ld.w      	r2, (r14, 0x0)
    22e6:	9861      	ld.w      	r3, (r14, 0x4)
    22e8:	0c16      	bf      	0x2314	// 2314 <ADC12_Configure_Mode+0x6c>
	{
		ADC0->CR|=ADC12_10BITor12BIT;
    22ea:	9600      	ld.w      	r0, (r6, 0x0)
    22ec:	9024      	ld.w      	r1, (r0, 0x10)
    22ee:	39bf      	bseti      	r1, 31
	}
	else
	{
		ADC0->CR&=~ADC12_10BITor12BIT;
    22f0:	b024      	st.w      	r1, (r0, 0x10)
	}
	//ADC0->CR|=ADC12_VREF_VDD | ADC12_FVR_DIS;
	ADC0->PRI=ADC12_PRI;
    22f2:	9620      	ld.w      	r1, (r6, 0x0)
    22f4:	b15c      	st.w      	r2, (r1, 0x70)
	ADC0->SHR=adc12_SHR;								//adc Sampling & Holding cycles
    22f6:	b166      	st.w      	r3, (r1, 0x18)
} 
    22f8:	1402      	addi      	r14, r14, 8
    22fa:	1494      	pop      	r4-r7, r15
	else if(ADC12_ConverMode==Continuous_mode)
    22fc:	3941      	cmpnei      	r1, 1
    22fe:	0bee      	bt      	0x22da	// 22da <ADC12_Configure_Mode+0x32>
		ADC0->MR|=CONTCV;								//Continuous mode
    2300:	9425      	ld.w      	r1, (r4, 0x14)
    2302:	39bf      	bseti      	r1, 31
		while(!(ADC0->SR&ADC12_CTCVS));							
    2304:	3080      	movi      	r0, 128
		ADC0->MR|=CONTCV;								//Continuous mode
    2306:	b425      	st.w      	r1, (r4, 0x14)
		while(!(ADC0->SR&ADC12_CTCVS));							
    2308:	4002      	lsli      	r0, r0, 2
    230a:	9428      	ld.w      	r1, (r4, 0x20)
    230c:	6840      	and      	r1, r0
    230e:	3940      	cmpnei      	r1, 0
    2310:	0ffd      	bf      	0x230a	// 230a <ADC12_Configure_Mode+0x62>
    2312:	07e4      	br      	0x22da	// 22da <ADC12_Configure_Mode+0x32>
		ADC0->CR&=~ADC12_10BITor12BIT;
    2314:	9600      	ld.w      	r0, (r6, 0x0)
    2316:	9024      	ld.w      	r1, (r0, 0x10)
    2318:	4121      	lsli      	r1, r1, 1
    231a:	4921      	lsri      	r1, r1, 1
    231c:	07ea      	br      	0x22f0	// 22f0 <ADC12_Configure_Mode+0x48>
    231e:	0000      	bkpt
    2320:	20000050 	.long	0x20000050

Disassembly of section .text.ADC12_Configure_VREF_Selecte:

00002324 <ADC12_Configure_VREF_Selecte>:
//EntryParameter:NONE
//ReturnValue:None
/*************************************************************/ 
void ADC12_Configure_VREF_Selecte(ADC12_VREFP_VREFN_Selected_TypeDef ADC12_VREFP_X_VREFN_X )
{
	if(ADC12_VREFP_X_VREFN_X==ADC12_VREFP_VDD_VREFN_VSS)
    2324:	3840      	cmpnei      	r0, 0
    2326:	0808      	bt      	0x2336	// 2336 <ADC12_Configure_VREF_Selecte+0x12>
	{
		ADC0->CR=(ADC0->CR&0xfffefc3f)|(0x00<<6);
    2328:	127c      	lrw      	r3, 0x20000050	// 2498 <ADC12_Configure_VREF_Selecte+0x174>
    232a:	123d      	lrw      	r1, 0x103c0	// 249c <ADC12_Configure_VREF_Selecte+0x178>
    232c:	9340      	ld.w      	r2, (r3, 0x0)
    232e:	9264      	ld.w      	r3, (r2, 0x10)
    2330:	68c5      	andn      	r3, r1
		ADC0->CR=(ADC0->CR&0xfcfefc3f)|(0x0B<<6)|(0X01<<24)|(0X01<<25);	
	}
	else if(ADC12_VREFP_X_VREFN_X==ADC12_VREFP_INTVREF1000_VREFN_EXIT)
	{
		GPIOA0->CONLR = (GPIOA0->CONLR&0XFFFF0FFF)  | 0x0000B000;					
		ADC0->CR=(ADC0->CR&0xfffefc3f)|(0x0C<<6)|(0X00<<16)|(0X02<<17);	
    2332:	b264      	st.w      	r3, (r2, 0x10)
	}
}
    2334:	783c      	jmp      	r15
	else if(ADC12_VREFP_X_VREFN_X==ADC12_VREFP_EXIT_VREFN_VSS)
    2336:	3841      	cmpnei      	r0, 1
    2338:	0810      	bt      	0x2358	// 2358 <ADC12_Configure_VREF_Selecte+0x34>
		GPIOA0->CONLR = (GPIOA0->CONLR&0XFFFFF0FF)  | 0x00000800;							
    233a:	127a      	lrw      	r3, 0x2000004c	// 24a0 <ADC12_Configure_VREF_Selecte+0x17c>
    233c:	32f0      	movi      	r2, 240
    233e:	9320      	ld.w      	r1, (r3, 0x0)
    2340:	9160      	ld.w      	r3, (r1, 0x0)
    2342:	4244      	lsli      	r2, r2, 4
    2344:	68c9      	andn      	r3, r2
    2346:	3bab      	bseti      	r3, 11
    2348:	b160      	st.w      	r3, (r1, 0x0)
		ADC0->CR=(ADC0->CR&0xfffefc3f)|(0x01<<6);
    234a:	1235      	lrw      	r1, 0x103c0	// 249c <ADC12_Configure_VREF_Selecte+0x178>
    234c:	1273      	lrw      	r3, 0x20000050	// 2498 <ADC12_Configure_VREF_Selecte+0x174>
    234e:	9340      	ld.w      	r2, (r3, 0x0)
    2350:	9264      	ld.w      	r3, (r2, 0x10)
    2352:	68c5      	andn      	r3, r1
    2354:	3ba6      	bseti      	r3, 6
    2356:	07ee      	br      	0x2332	// 2332 <ADC12_Configure_VREF_Selecte+0xe>
	else if(ADC12_VREFP_X_VREFN_X==ADC12_VREFP_FVR2048_VREFN_VSS)
    2358:	3842      	cmpnei      	r0, 2
    235a:	0811      	bt      	0x237c	// 237c <ADC12_Configure_VREF_Selecte+0x58>
		GPIOA0->CONLR = (GPIOA0->CONLR&0XFFFFF0FF)  | 0x00000800;							
    235c:	1271      	lrw      	r3, 0x2000004c	// 24a0 <ADC12_Configure_VREF_Selecte+0x17c>
    235e:	32f0      	movi      	r2, 240
    2360:	9320      	ld.w      	r1, (r3, 0x0)
    2362:	9160      	ld.w      	r3, (r1, 0x0)
    2364:	4244      	lsli      	r2, r2, 4
    2366:	68c9      	andn      	r3, r2
    2368:	3bab      	bseti      	r3, 11
    236a:	b160      	st.w      	r3, (r1, 0x0)
		ADC0->CR=(ADC0->CR&0xfcfefc3f)|(0x02<<6)|(0X01<<24)|(0X00<<25);
    236c:	122e      	lrw      	r1, 0x30103c0	// 24a4 <ADC12_Configure_VREF_Selecte+0x180>
    236e:	126b      	lrw      	r3, 0x20000050	// 2498 <ADC12_Configure_VREF_Selecte+0x174>
    2370:	9340      	ld.w      	r2, (r3, 0x0)
    2372:	9264      	ld.w      	r3, (r2, 0x10)
    2374:	68c5      	andn      	r3, r1
    2376:	3ba7      	bseti      	r3, 7
    2378:	3bb8      	bseti      	r3, 24
    237a:	07dc      	br      	0x2332	// 2332 <ADC12_Configure_VREF_Selecte+0xe>
	else if(ADC12_VREFP_X_VREFN_X==ADC12_VREFP_FVR4096_VREFN_VSS)
    237c:	3843      	cmpnei      	r0, 3
    237e:	0811      	bt      	0x23a0	// 23a0 <ADC12_Configure_VREF_Selecte+0x7c>
		GPIOA0->CONLR = (GPIOA0->CONLR&0XFFFFF0FF)  | 0x00000800;							
    2380:	1268      	lrw      	r3, 0x2000004c	// 24a0 <ADC12_Configure_VREF_Selecte+0x17c>
    2382:	32f0      	movi      	r2, 240
    2384:	9320      	ld.w      	r1, (r3, 0x0)
    2386:	9160      	ld.w      	r3, (r1, 0x0)
    2388:	4244      	lsli      	r2, r2, 4
    238a:	68c9      	andn      	r3, r2
    238c:	3bab      	bseti      	r3, 11
    238e:	b160      	st.w      	r3, (r1, 0x0)
		ADC0->CR=(ADC0->CR&0xfcfefc3f)|(0x03<<6)|(0X01<<24)|(0X01<<25);
    2390:	1225      	lrw      	r1, 0x30103c0	// 24a4 <ADC12_Configure_VREF_Selecte+0x180>
    2392:	1262      	lrw      	r3, 0x20000050	// 2498 <ADC12_Configure_VREF_Selecte+0x174>
    2394:	9340      	ld.w      	r2, (r3, 0x0)
    2396:	9264      	ld.w      	r3, (r2, 0x10)
    2398:	68c5      	andn      	r3, r1
    239a:	1224      	lrw      	r1, 0x30000c0	// 24a8 <ADC12_Configure_VREF_Selecte+0x184>
		ADC0->CR=(ADC0->CR&0xfffefc3f)|(0x0C<<6)|(0X00<<16)|(0X02<<17);	
    239c:	6cc4      	or      	r3, r1
    239e:	07ca      	br      	0x2332	// 2332 <ADC12_Configure_VREF_Selecte+0xe>
	else if(ADC12_VREFP_X_VREFN_X==ADC12_VREFP_INTVREF1000_VREFN_VSS)
    23a0:	3845      	cmpnei      	r0, 5
    23a2:	0809      	bt      	0x23b4	// 23b4 <ADC12_Configure_VREF_Selecte+0x90>
		ADC0->CR=(ADC0->CR&0xfffefc3f)|(0x04<<6)|(0X00<<16)|(0X02<<17);
    23a4:	117d      	lrw      	r3, 0x20000050	// 2498 <ADC12_Configure_VREF_Selecte+0x174>
    23a6:	1222      	lrw      	r1, 0x503c0	// 24ac <ADC12_Configure_VREF_Selecte+0x188>
    23a8:	9340      	ld.w      	r2, (r3, 0x0)
    23aa:	9264      	ld.w      	r3, (r2, 0x10)
    23ac:	68c5      	andn      	r3, r1
    23ae:	3ba8      	bseti      	r3, 8
    23b0:	3bb2      	bseti      	r3, 18
    23b2:	07c0      	br      	0x2332	// 2332 <ADC12_Configure_VREF_Selecte+0xe>
	else if(ADC12_VREFP_X_VREFN_X==ADC12_VREFP_VDD_VREFN_EXIT)
    23b4:	3846      	cmpnei      	r0, 6
    23b6:	0812      	bt      	0x23da	// 23da <ADC12_Configure_VREF_Selecte+0xb6>
		GPIOA0->CONLR = (GPIOA0->CONLR&0XFFFF0FFF)  | 0x0000B000;	
    23b8:	117a      	lrw      	r3, 0x2000004c	// 24a0 <ADC12_Configure_VREF_Selecte+0x17c>
    23ba:	32f0      	movi      	r2, 240
    23bc:	9320      	ld.w      	r1, (r3, 0x0)
    23be:	9160      	ld.w      	r3, (r1, 0x0)
    23c0:	4248      	lsli      	r2, r2, 8
    23c2:	68c9      	andn      	r3, r2
    23c4:	32b0      	movi      	r2, 176
    23c6:	4248      	lsli      	r2, r2, 8
    23c8:	6cc8      	or      	r3, r2
    23ca:	b160      	st.w      	r3, (r1, 0x0)
		ADC0->CR=(ADC0->CR&0xfffefc3f)|(0x08<<6);
    23cc:	1134      	lrw      	r1, 0x103c0	// 249c <ADC12_Configure_VREF_Selecte+0x178>
    23ce:	1173      	lrw      	r3, 0x20000050	// 2498 <ADC12_Configure_VREF_Selecte+0x174>
    23d0:	9340      	ld.w      	r2, (r3, 0x0)
    23d2:	9264      	ld.w      	r3, (r2, 0x10)
    23d4:	68c5      	andn      	r3, r1
    23d6:	3ba9      	bseti      	r3, 9
    23d8:	07ad      	br      	0x2332	// 2332 <ADC12_Configure_VREF_Selecte+0xe>
	else if(ADC12_VREFP_X_VREFN_X==ADC12_VREFP_EXIT_VREFN_EXIT)
    23da:	3847      	cmpnei      	r0, 7
    23dc:	0819      	bt      	0x240e	// 240e <ADC12_Configure_VREF_Selecte+0xea>
		GPIOA0->CONLR = (GPIOA0->CONLR&0XFFFF0FFF)  | 0x0000B000;
    23de:	1171      	lrw      	r3, 0x2000004c	// 24a0 <ADC12_Configure_VREF_Selecte+0x17c>
    23e0:	31f0      	movi      	r1, 240
    23e2:	9340      	ld.w      	r2, (r3, 0x0)
    23e4:	9260      	ld.w      	r3, (r2, 0x0)
    23e6:	4128      	lsli      	r1, r1, 8
    23e8:	68c5      	andn      	r3, r1
    23ea:	31b0      	movi      	r1, 176
    23ec:	4128      	lsli      	r1, r1, 8
    23ee:	6cc4      	or      	r3, r1
    23f0:	b260      	st.w      	r3, (r2, 0x0)
		GPIOA0->CONLR = (GPIOA0->CONLR&0XFFFFF0FF)  | 0x00000800;			
    23f2:	31f0      	movi      	r1, 240
    23f4:	9260      	ld.w      	r3, (r2, 0x0)
    23f6:	4124      	lsli      	r1, r1, 4
    23f8:	68c5      	andn      	r3, r1
    23fa:	3bab      	bseti      	r3, 11
    23fc:	b260      	st.w      	r3, (r2, 0x0)
		ADC0->CR=(ADC0->CR&0xfffefc3f)|(0x09<<6);
    23fe:	1128      	lrw      	r1, 0x103c0	// 249c <ADC12_Configure_VREF_Selecte+0x178>
    2400:	1166      	lrw      	r3, 0x20000050	// 2498 <ADC12_Configure_VREF_Selecte+0x174>
    2402:	9340      	ld.w      	r2, (r3, 0x0)
    2404:	9264      	ld.w      	r3, (r2, 0x10)
    2406:	68c5      	andn      	r3, r1
    2408:	3ba6      	bseti      	r3, 6
    240a:	3ba9      	bseti      	r3, 9
    240c:	0793      	br      	0x2332	// 2332 <ADC12_Configure_VREF_Selecte+0xe>
	else if(ADC12_VREFP_X_VREFN_X==ADC12_VREFP_FVR2048_VREFN_EXIT)
    240e:	3848      	cmpnei      	r0, 8
    2410:	0818      	bt      	0x2440	// 2440 <ADC12_Configure_VREF_Selecte+0x11c>
		GPIOA0->CONLR = (GPIOA0->CONLR&0XFFFF0FFF)  | 0x0000B000;	
    2412:	1164      	lrw      	r3, 0x2000004c	// 24a0 <ADC12_Configure_VREF_Selecte+0x17c>
    2414:	31f0      	movi      	r1, 240
    2416:	9340      	ld.w      	r2, (r3, 0x0)
    2418:	9260      	ld.w      	r3, (r2, 0x0)
    241a:	4128      	lsli      	r1, r1, 8
    241c:	68c5      	andn      	r3, r1
    241e:	31b0      	movi      	r1, 176
    2420:	4128      	lsli      	r1, r1, 8
    2422:	6cc4      	or      	r3, r1
    2424:	b260      	st.w      	r3, (r2, 0x0)
		GPIOA0->CONLR = (GPIOA0->CONLR&0XFFFFF0FF)  | 0x00000800;
    2426:	31f0      	movi      	r1, 240
    2428:	9260      	ld.w      	r3, (r2, 0x0)
    242a:	4124      	lsli      	r1, r1, 4
    242c:	68c5      	andn      	r3, r1
    242e:	3bab      	bseti      	r3, 11
    2430:	b260      	st.w      	r3, (r2, 0x0)
		ADC0->CR=(ADC0->CR&0xfcfefc3f)|(0x0A<<6)|(0X01<<24)|(0X00<<25);			
    2432:	103d      	lrw      	r1, 0x30103c0	// 24a4 <ADC12_Configure_VREF_Selecte+0x180>
    2434:	1079      	lrw      	r3, 0x20000050	// 2498 <ADC12_Configure_VREF_Selecte+0x174>
    2436:	9340      	ld.w      	r2, (r3, 0x0)
    2438:	9264      	ld.w      	r3, (r2, 0x10)
    243a:	68c5      	andn      	r3, r1
    243c:	103d      	lrw      	r1, 0x1000280	// 24b0 <ADC12_Configure_VREF_Selecte+0x18c>
    243e:	07af      	br      	0x239c	// 239c <ADC12_Configure_VREF_Selecte+0x78>
	else if(ADC12_VREFP_X_VREFN_X==ADC12_VREFP_FVR4096_VREFN_EXIT)
    2440:	3849      	cmpnei      	r0, 9
    2442:	0818      	bt      	0x2472	// 2472 <ADC12_Configure_VREF_Selecte+0x14e>
		GPIOA0->CONLR = (GPIOA0->CONLR&0XFFFF0FFF)  | 0x0000B000;	
    2444:	1077      	lrw      	r3, 0x2000004c	// 24a0 <ADC12_Configure_VREF_Selecte+0x17c>
    2446:	31f0      	movi      	r1, 240
    2448:	9340      	ld.w      	r2, (r3, 0x0)
    244a:	9260      	ld.w      	r3, (r2, 0x0)
    244c:	4128      	lsli      	r1, r1, 8
    244e:	68c5      	andn      	r3, r1
    2450:	31b0      	movi      	r1, 176
    2452:	4128      	lsli      	r1, r1, 8
    2454:	6cc4      	or      	r3, r1
    2456:	b260      	st.w      	r3, (r2, 0x0)
		GPIOA0->CONLR = (GPIOA0->CONLR&0XFFFFF0FF)  | 0x00000800;
    2458:	31f0      	movi      	r1, 240
    245a:	9260      	ld.w      	r3, (r2, 0x0)
    245c:	4124      	lsli      	r1, r1, 4
    245e:	68c5      	andn      	r3, r1
    2460:	3bab      	bseti      	r3, 11
    2462:	b260      	st.w      	r3, (r2, 0x0)
		ADC0->CR=(ADC0->CR&0xfcfefc3f)|(0x0B<<6)|(0X01<<24)|(0X01<<25);	
    2464:	1030      	lrw      	r1, 0x30103c0	// 24a4 <ADC12_Configure_VREF_Selecte+0x180>
    2466:	106d      	lrw      	r3, 0x20000050	// 2498 <ADC12_Configure_VREF_Selecte+0x174>
    2468:	9340      	ld.w      	r2, (r3, 0x0)
    246a:	9264      	ld.w      	r3, (r2, 0x10)
    246c:	68c5      	andn      	r3, r1
    246e:	1032      	lrw      	r1, 0x30002c0	// 24b4 <ADC12_Configure_VREF_Selecte+0x190>
    2470:	0796      	br      	0x239c	// 239c <ADC12_Configure_VREF_Selecte+0x78>
	else if(ADC12_VREFP_X_VREFN_X==ADC12_VREFP_INTVREF1000_VREFN_EXIT)
    2472:	384b      	cmpnei      	r0, 11
    2474:	0b60      	bt      	0x2334	// 2334 <ADC12_Configure_VREF_Selecte+0x10>
		GPIOA0->CONLR = (GPIOA0->CONLR&0XFFFF0FFF)  | 0x0000B000;					
    2476:	106b      	lrw      	r3, 0x2000004c	// 24a0 <ADC12_Configure_VREF_Selecte+0x17c>
    2478:	32f0      	movi      	r2, 240
    247a:	9320      	ld.w      	r1, (r3, 0x0)
    247c:	9160      	ld.w      	r3, (r1, 0x0)
    247e:	4248      	lsli      	r2, r2, 8
    2480:	68c9      	andn      	r3, r2
    2482:	32b0      	movi      	r2, 176
    2484:	4248      	lsli      	r2, r2, 8
    2486:	6cc8      	or      	r3, r2
    2488:	b160      	st.w      	r3, (r1, 0x0)
		ADC0->CR=(ADC0->CR&0xfffefc3f)|(0x0C<<6)|(0X00<<16)|(0X02<<17);	
    248a:	1029      	lrw      	r1, 0x503c0	// 24ac <ADC12_Configure_VREF_Selecte+0x188>
    248c:	1063      	lrw      	r3, 0x20000050	// 2498 <ADC12_Configure_VREF_Selecte+0x174>
    248e:	9340      	ld.w      	r2, (r3, 0x0)
    2490:	9264      	ld.w      	r3, (r2, 0x10)
    2492:	68c5      	andn      	r3, r1
    2494:	1029      	lrw      	r1, 0x40300	// 24b8 <ADC12_Configure_VREF_Selecte+0x194>
    2496:	0783      	br      	0x239c	// 239c <ADC12_Configure_VREF_Selecte+0x78>
    2498:	20000050 	.long	0x20000050
    249c:	000103c0 	.long	0x000103c0
    24a0:	2000004c 	.long	0x2000004c
    24a4:	030103c0 	.long	0x030103c0
    24a8:	030000c0 	.long	0x030000c0
    24ac:	000503c0 	.long	0x000503c0
    24b0:	01000280 	.long	0x01000280
    24b4:	030002c0 	.long	0x030002c0
    24b8:	00040300 	.long	0x00040300

Disassembly of section .text.ADC12_ConversionChannel_Config:

000024bc <ADC12_ConversionChannel_Config>:
//ADC12_ADCINX:ADC12_ADCIN0~ADC12_ADCIN17,ADC12_INTVREF,ADC12_DIV4_VDD,ADC12_VSS
//ReturnValue:NONE
/*************************************************************/ 
void ADC12_ConversionChannel_Config(ADC12_InputSet_TypeDef ADC12_ADCINX ,
						ADC12_CV_RepeatNum_TypeDef CV_RepeatTime, ADC12_Control_TypeDef AVG_Set, U8_T SEQx)
{
    24bc:	14d4      	push      	r4-r7, r15
    24be:	1421      	subi      	r14, r14, 4
    24c0:	b840      	st.w      	r2, (r14, 0x0)
    24c2:	6d43      	mov      	r5, r0
	U8_T i;
	for(i=0;i<15;i++)
	{
		ADC0->SEQ[i] &=~(0x01<<7);
    24c4:	125b      	lrw      	r2, 0x20000050	// 2630 <ADC12_ConversionChannel_Config+0x174>
    24c6:	92c0      	ld.w      	r6, (r2, 0x0)
    24c8:	3200      	movi      	r2, 0
    24ca:	4202      	lsli      	r0, r2, 2
    24cc:	6018      	addu      	r0, r6
    24ce:	908c      	ld.w      	r4, (r0, 0x30)
    24d0:	2200      	addi      	r2, 1
    24d2:	3c87      	bclri      	r4, 7
	for(i=0;i<15;i++)
    24d4:	3a4f      	cmpnei      	r2, 15
		ADC0->SEQ[i] &=~(0x01<<7);
    24d6:	b08c      	st.w      	r4, (r0, 0x30)
	for(i=0;i<15;i++)
    24d8:	0bf9      	bt      	0x24ca	// 24ca <ADC12_ConversionChannel_Config+0xe>
	}
	switch(ADC12_ADCINX)
    24da:	3d0f      	cmphsi      	r5, 16
    24dc:	0825      	bt      	0x2526	// 2526 <ADC12_ConversionChannel_Config+0x6a>
    24de:	6c17      	mov      	r0, r5
    24e0:	1255      	lrw      	r2, 0x2000004c	// 2634 <ADC12_ConversionChannel_Config+0x178>
    24e2:	1296      	lrw      	r4, 0x20000048	// 2638 <ADC12_ConversionChannel_Config+0x17c>
    24e4:	e3fff40c 	bsr      	0xcfc	// cfc <___gnu_csky_case_uqi>
    24e8:	322c1408 	.long	0x322c1408
    24ec:	4d474039 	.long	0x4d474039
    24f0:	756d6559 	.long	0x756d6559
    24f4:	9990877e 	.long	0x9990877e
	{
		case 0:	
			GPIOA0->CONLR = (GPIOA0->CONLR&0XFFFFFFFF)  | 0x00000000;							//ADC0 PB0.1
    24f8:	9240      	ld.w      	r2, (r2, 0x0)
    24fa:	9200      	ld.w      	r0, (r2, 0x0)
    24fc:	b200      	st.w      	r0, (r2, 0x0)
			GPIOA0->CONHR = (GPIOA0->CONHR&0XFFFFFFFF)  | 0x00000000;	
    24fe:	9201      	ld.w      	r0, (r2, 0x4)
    2500:	b201      	st.w      	r0, (r2, 0x4)
			GPIOB0->CONLR = (GPIOB0->CONLR&0XFFFFFF0F)  | 0x00000010;			
    2502:	9400      	ld.w      	r0, (r4, 0x0)
    2504:	9040      	ld.w      	r2, (r0, 0x0)
    2506:	34f0      	movi      	r4, 240
    2508:	6891      	andn      	r2, r4
    250a:	3aa4      	bseti      	r2, 4
			GPIOB0->CONLR = (GPIOB0->CONLR&0XFFFFFFFF)  | 0x00000000;		
			break;
		case 15:
			GPIOA0->CONLR = (GPIOA0->CONLR&0XFFFFFFFF)  | 0x00000000;							//ADC15 PB0.0
			GPIOA0->CONHR = (GPIOA0->CONHR&0XFFFFFFFF)  | 0x00000000;	
			GPIOB0->CONLR = (GPIOB0->CONLR&0XFFFFFFF0)  | 0x00000001;		
    250c:	b040      	st.w      	r2, (r0, 0x0)
			break;
    250e:	040c      	br      	0x2526	// 2526 <ADC12_ConversionChannel_Config+0x6a>
			GPIOA0->CONLR = (GPIOA0->CONLR&0XFFFFFFF0)  | 0x00000001;							//ADC1 PA0.0
    2510:	9200      	ld.w      	r0, (r2, 0x0)
    2512:	9040      	ld.w      	r2, (r0, 0x0)
    2514:	370f      	movi      	r7, 15
    2516:	689d      	andn      	r2, r7
    2518:	3aa0      	bseti      	r2, 0
			GPIOA0->CONLR = (GPIOA0->CONLR&0X0FFFFFFF)  | 0x10000000;							//ADC6 PA0.7
    251a:	b040      	st.w      	r2, (r0, 0x0)
			GPIOA0->CONHR = (GPIOA0->CONHR&0XFFFFFFFF)  | 0x00000000;	
    251c:	9041      	ld.w      	r2, (r0, 0x4)
			GPIOA0->CONHR = (GPIOA0->CONHR&0XFF0FFFFF)  | 0x00100000;	
    251e:	b041      	st.w      	r2, (r0, 0x4)
			GPIOB0->CONLR = (GPIOB0->CONLR&0XFFFFFFFF)  | 0x00000000;		
    2520:	9440      	ld.w      	r2, (r4, 0x0)
    2522:	9200      	ld.w      	r0, (r2, 0x0)
    2524:	b200      	st.w      	r0, (r2, 0x0)
    2526:	4362      	lsli      	r3, r3, 2
    2528:	618c      	addu      	r6, r3
		//case 27: break;
		case 0x1Cul: break;
		case 0x1Dul: break;
		case 0x1Eul: break;
	}
	ADC0->SEQ[SEQx] = ADC0->SEQ[SEQx] & 0;
    252a:	966c      	ld.w      	r3, (r6, 0x30)
    252c:	3300      	movi      	r3, 0
    252e:	b66c      	st.w      	r3, (r6, 0x30)
	ADC0->SEQ[SEQx] = ADC0->SEQ[SEQx] | ADC12_ADCINX  | CV_RepeatTime | AVG_Set;
    2530:	9860      	ld.w      	r3, (r14, 0x0)
    2532:	6c4c      	or      	r1, r3
    2534:	964c      	ld.w      	r2, (r6, 0x30)
    2536:	6d44      	or      	r5, r1
    2538:	6d48      	or      	r5, r2
    253a:	b6ac      	st.w      	r5, (r6, 0x30)
}
    253c:	1401      	addi      	r14, r14, 4
    253e:	1494      	pop      	r4-r7, r15
			GPIOA0->CONLR = (GPIOA0->CONLR&0XFFFFFF0F)  | 0x00000010;							//ADC2 PA0.1
    2540:	9200      	ld.w      	r0, (r2, 0x0)
    2542:	9040      	ld.w      	r2, (r0, 0x0)
    2544:	37f0      	movi      	r7, 240
    2546:	689d      	andn      	r2, r7
    2548:	3aa4      	bseti      	r2, 4
    254a:	07e8      	br      	0x251a	// 251a <ADC12_ConversionChannel_Config+0x5e>
			GPIOA0->CONLR = (GPIOA0->CONLR&0XFFFF0FFF)  | 0x00001000;							//ADC3 PA0.3
    254c:	9200      	ld.w      	r0, (r2, 0x0)
    254e:	37f0      	movi      	r7, 240
    2550:	9040      	ld.w      	r2, (r0, 0x0)
    2552:	47e8      	lsli      	r7, r7, 8
    2554:	689d      	andn      	r2, r7
    2556:	3aac      	bseti      	r2, 12
    2558:	07e1      	br      	0x251a	// 251a <ADC12_ConversionChannel_Config+0x5e>
			GPIOA0->CONLR = (GPIOA0->CONLR&0XFF0FFFFF)  | 0x00100000;							//ADC4 PA0.5
    255a:	9200      	ld.w      	r0, (r2, 0x0)
    255c:	37f0      	movi      	r7, 240
    255e:	9040      	ld.w      	r2, (r0, 0x0)
    2560:	47f0      	lsli      	r7, r7, 16
    2562:	689d      	andn      	r2, r7
    2564:	3ab4      	bseti      	r2, 20
    2566:	07da      	br      	0x251a	// 251a <ADC12_ConversionChannel_Config+0x5e>
			GPIOA0->CONLR = (GPIOA0->CONLR&0XF0FFFFFF)  | 0x01000000;							//ADC5 PA0.6
    2568:	9200      	ld.w      	r0, (r2, 0x0)
    256a:	37f0      	movi      	r7, 240
    256c:	9040      	ld.w      	r2, (r0, 0x0)
    256e:	47f4      	lsli      	r7, r7, 20
    2570:	689d      	andn      	r2, r7
    2572:	3ab8      	bseti      	r2, 24
    2574:	07d3      	br      	0x251a	// 251a <ADC12_ConversionChannel_Config+0x5e>
			GPIOA0->CONLR = (GPIOA0->CONLR&0X0FFFFFFF)  | 0x10000000;							//ADC6 PA0.7
    2576:	9200      	ld.w      	r0, (r2, 0x0)
    2578:	9040      	ld.w      	r2, (r0, 0x0)
    257a:	4244      	lsli      	r2, r2, 4
    257c:	4a44      	lsri      	r2, r2, 4
    257e:	3abc      	bseti      	r2, 28
    2580:	07cd      	br      	0x251a	// 251a <ADC12_ConversionChannel_Config+0x5e>
			GPIOA0->CONLR = (GPIOA0->CONLR&0XFFFFFFFF)  | 0x00000000;							//ADC7 PB0.2
    2582:	9240      	ld.w      	r2, (r2, 0x0)
    2584:	9200      	ld.w      	r0, (r2, 0x0)
    2586:	b200      	st.w      	r0, (r2, 0x0)
			GPIOA0->CONHR = (GPIOA0->CONHR&0XFFFFFFFF)  | 0x00000000;	
    2588:	9201      	ld.w      	r0, (r2, 0x4)
    258a:	b201      	st.w      	r0, (r2, 0x4)
			GPIOB0->CONLR = (GPIOB0->CONLR&0XFFFFF0FF)  | 0x00000100;
    258c:	9400      	ld.w      	r0, (r4, 0x0)
    258e:	34f0      	movi      	r4, 240
    2590:	9040      	ld.w      	r2, (r0, 0x0)
    2592:	4484      	lsli      	r4, r4, 4
    2594:	6891      	andn      	r2, r4
    2596:	3aa8      	bseti      	r2, 8
    2598:	07ba      	br      	0x250c	// 250c <ADC12_ConversionChannel_Config+0x50>
			GPIOA0->CONLR = (GPIOA0->CONLR&0XFFFFFFFF)  | 0x00000000;							//ADC8 PB0.3
    259a:	9240      	ld.w      	r2, (r2, 0x0)
    259c:	9200      	ld.w      	r0, (r2, 0x0)
    259e:	b200      	st.w      	r0, (r2, 0x0)
			GPIOA0->CONHR = (GPIOA0->CONHR&0XFFFFFFFF)  | 0x00000000;	
    25a0:	9201      	ld.w      	r0, (r2, 0x4)
    25a2:	b201      	st.w      	r0, (r2, 0x4)
			GPIOB0->CONLR = (GPIOB0->CONLR&0XFFFF0FFF)  | 0x00001000;
    25a4:	9400      	ld.w      	r0, (r4, 0x0)
    25a6:	34f0      	movi      	r4, 240
    25a8:	9040      	ld.w      	r2, (r0, 0x0)
    25aa:	4488      	lsli      	r4, r4, 8
    25ac:	6891      	andn      	r2, r4
    25ae:	3aac      	bseti      	r2, 12
    25b0:	07ae      	br      	0x250c	// 250c <ADC12_ConversionChannel_Config+0x50>
			GPIOA0->CONLR = (GPIOA0->CONLR&0XFFFFFFFF)  | 0x00000000;							//ADC9 PA0.8
    25b2:	9200      	ld.w      	r0, (r2, 0x0)
    25b4:	9040      	ld.w      	r2, (r0, 0x0)
    25b6:	b040      	st.w      	r2, (r0, 0x0)
			GPIOA0->CONHR = (GPIOA0->CONHR&0XFFFFFFF0)  | 0x00000001;	
    25b8:	9041      	ld.w      	r2, (r0, 0x4)
    25ba:	370f      	movi      	r7, 15
    25bc:	689d      	andn      	r2, r7
    25be:	3aa0      	bseti      	r2, 0
    25c0:	07af      	br      	0x251e	// 251e <ADC12_ConversionChannel_Config+0x62>
			GPIOA0->CONLR = (GPIOA0->CONLR&0XFFFFFFFF)  | 0x00000000;							//ADC10 PA0.9
    25c2:	9200      	ld.w      	r0, (r2, 0x0)
    25c4:	9040      	ld.w      	r2, (r0, 0x0)
    25c6:	b040      	st.w      	r2, (r0, 0x0)
			GPIOA0->CONHR = (GPIOA0->CONHR&0XFFFFFF0F)  | 0x00000010;	
    25c8:	9041      	ld.w      	r2, (r0, 0x4)
    25ca:	37f0      	movi      	r7, 240
    25cc:	689d      	andn      	r2, r7
    25ce:	3aa4      	bseti      	r2, 4
    25d0:	07a7      	br      	0x251e	// 251e <ADC12_ConversionChannel_Config+0x62>
			GPIOA0->CONLR = (GPIOA0->CONLR&0XFFFFFFFF)  | 0x00000000;							//ADC11 PA0.10
    25d2:	9200      	ld.w      	r0, (r2, 0x0)
    25d4:	9040      	ld.w      	r2, (r0, 0x0)
    25d6:	b040      	st.w      	r2, (r0, 0x0)
			GPIOA0->CONHR = (GPIOA0->CONHR&0XFFFFF0FF)  | 0x00000100;	
    25d8:	37f0      	movi      	r7, 240
    25da:	9041      	ld.w      	r2, (r0, 0x4)
    25dc:	47e4      	lsli      	r7, r7, 4
    25de:	689d      	andn      	r2, r7
    25e0:	3aa8      	bseti      	r2, 8
    25e2:	079e      	br      	0x251e	// 251e <ADC12_ConversionChannel_Config+0x62>
			GPIOA0->CONLR = (GPIOA0->CONLR&0XFFFFFFFF)  | 0x00000000;							//ADC12 PA0.11
    25e4:	9200      	ld.w      	r0, (r2, 0x0)
    25e6:	9040      	ld.w      	r2, (r0, 0x0)
    25e8:	b040      	st.w      	r2, (r0, 0x0)
			GPIOA0->CONHR = (GPIOA0->CONHR&0XFFFF0FFF)  | 0x00001000;	
    25ea:	37f0      	movi      	r7, 240
    25ec:	9041      	ld.w      	r2, (r0, 0x4)
    25ee:	47e8      	lsli      	r7, r7, 8
    25f0:	689d      	andn      	r2, r7
    25f2:	3aac      	bseti      	r2, 12
    25f4:	0795      	br      	0x251e	// 251e <ADC12_ConversionChannel_Config+0x62>
			GPIOA0->CONLR = (GPIOA0->CONLR&0XFFFFFFFF)  | 0x00000000;							//ADC13 PA0.12
    25f6:	9200      	ld.w      	r0, (r2, 0x0)
    25f8:	9040      	ld.w      	r2, (r0, 0x0)
    25fa:	b040      	st.w      	r2, (r0, 0x0)
			GPIOA0->CONHR = (GPIOA0->CONHR&0XFFF0FFFF)  | 0x00010000;	
    25fc:	37f0      	movi      	r7, 240
    25fe:	9041      	ld.w      	r2, (r0, 0x4)
    2600:	47ec      	lsli      	r7, r7, 12
    2602:	689d      	andn      	r2, r7
    2604:	3ab0      	bseti      	r2, 16
    2606:	078c      	br      	0x251e	// 251e <ADC12_ConversionChannel_Config+0x62>
			GPIOA0->CONLR = (GPIOA0->CONLR&0XFFFFFFFF)  | 0x00000000;							//ADC14 PA0.13	
    2608:	9200      	ld.w      	r0, (r2, 0x0)
    260a:	9040      	ld.w      	r2, (r0, 0x0)
    260c:	b040      	st.w      	r2, (r0, 0x0)
			GPIOA0->CONHR = (GPIOA0->CONHR&0XFF0FFFFF)  | 0x00100000;	
    260e:	37f0      	movi      	r7, 240
    2610:	9041      	ld.w      	r2, (r0, 0x4)
    2612:	47f0      	lsli      	r7, r7, 16
    2614:	689d      	andn      	r2, r7
    2616:	3ab4      	bseti      	r2, 20
    2618:	0783      	br      	0x251e	// 251e <ADC12_ConversionChannel_Config+0x62>
			GPIOA0->CONLR = (GPIOA0->CONLR&0XFFFFFFFF)  | 0x00000000;							//ADC15 PB0.0
    261a:	9240      	ld.w      	r2, (r2, 0x0)
    261c:	9200      	ld.w      	r0, (r2, 0x0)
    261e:	b200      	st.w      	r0, (r2, 0x0)
			GPIOA0->CONHR = (GPIOA0->CONHR&0XFFFFFFFF)  | 0x00000000;	
    2620:	9201      	ld.w      	r0, (r2, 0x4)
    2622:	b201      	st.w      	r0, (r2, 0x4)
			GPIOB0->CONLR = (GPIOB0->CONLR&0XFFFFFFF0)  | 0x00000001;		
    2624:	9400      	ld.w      	r0, (r4, 0x0)
    2626:	9040      	ld.w      	r2, (r0, 0x0)
    2628:	340f      	movi      	r4, 15
    262a:	6891      	andn      	r2, r4
    262c:	3aa0      	bseti      	r2, 0
    262e:	076f      	br      	0x250c	// 250c <ADC12_ConversionChannel_Config+0x50>
    2630:	20000050 	.long	0x20000050
    2634:	2000004c 	.long	0x2000004c
    2638:	20000048 	.long	0x20000048

Disassembly of section .text.BT_DeInit:

0000263c <BT_DeInit>:
//EntryParameter:NONE
//ReturnValue:NONE
/*************************************************************/    
void BT_DeInit(CSP_BT_T *BTx)
{
	BTx->RSSR=BT_RESET_VALUE;
    263c:	3300      	movi      	r3, 0
    263e:	b060      	st.w      	r3, (r0, 0x0)
	BTx->CR=BT_RESET_VALUE;
    2640:	b061      	st.w      	r3, (r0, 0x4)
	BTx->PSCR=BT_RESET_VALUE;
    2642:	b062      	st.w      	r3, (r0, 0x8)
	BTx->PRDR=BT_RESET_VALUE;
    2644:	b063      	st.w      	r3, (r0, 0xc)
	BTx->CMP=BT_RESET_VALUE;
    2646:	b064      	st.w      	r3, (r0, 0x10)
	BTx->CNT=BT_RESET_VALUE;
    2648:	b065      	st.w      	r3, (r0, 0x14)
	BTx->EVTRG=BT_RESET_VALUE;
    264a:	b066      	st.w      	r3, (r0, 0x18)
	BTx->EVSWF=BT_RESET_VALUE;
    264c:	b069      	st.w      	r3, (r0, 0x24)
	BTx->RISR=BT_RESET_VALUE;
    264e:	b06a      	st.w      	r3, (r0, 0x28)
	BTx->IMCR=BT_RESET_VALUE;
    2650:	b06b      	st.w      	r3, (r0, 0x2c)
	BTx->MISR=BT_RESET_VALUE;
    2652:	b06c      	st.w      	r3, (r0, 0x30)
	BTx->ICR=BT_RESET_VALUE;
    2654:	b06d      	st.w      	r3, (r0, 0x34)
}
    2656:	783c      	jmp      	r15

Disassembly of section .text.BT_Start:

00002658 <BT_Start>:
//EntryParameter:NONE
//ReturnValue:NONE
/*************************************************************/ 
void BT_Start(CSP_BT_T *BTx)
{
	BTx->RSSR |=0X01;
    2658:	9060      	ld.w      	r3, (r0, 0x0)
    265a:	3ba0      	bseti      	r3, 0
    265c:	b060      	st.w      	r3, (r0, 0x0)
}
    265e:	783c      	jmp      	r15

Disassembly of section .text.BT_Soft_Reset:

00002660 <BT_Soft_Reset>:
//EntryParameter:NONE
//ReturnValue:NONE
/*************************************************************/ 
void BT_Soft_Reset(CSP_BT_T *BTx)
{
	BTx->RSSR |= (0X5<<12);
    2660:	9060      	ld.w      	r3, (r0, 0x0)
    2662:	3bac      	bseti      	r3, 12
    2664:	3bae      	bseti      	r3, 14
    2666:	b060      	st.w      	r3, (r0, 0x0)
}
    2668:	783c      	jmp      	r15

Disassembly of section .text.BT_Configure:

0000266a <BT_Configure>:
//BT Configure
//EntryParameter:
//ReturnValue:NONE
/*************************************************************/
void BT_Configure(CSP_BT_T *BTx,BT_CLK_TypeDef BTCLK,U16_T PSCR_DATA,BT_SHDWSTP_TypeDef BTSHDWSTP,BT_OPM_TypeDef BTOPM,BT_EXTCKM_TypeDef BTEXTCKM)
{
    266a:	14c3      	push      	r4-r6
    266c:	98a4      	ld.w      	r5, (r14, 0x10)
    266e:	6d97      	mov      	r6, r5
    2670:	9883      	ld.w      	r4, (r14, 0xc)
	BTx->CR |=BTCLK| BTSHDWSTP| BTOPM| BTEXTCKM;
    2672:	6d18      	or      	r4, r6
    2674:	6cd0      	or      	r3, r4
    2676:	90a1      	ld.w      	r5, (r0, 0x4)
    2678:	6c4c      	or      	r1, r3
    267a:	6c54      	or      	r1, r5
    267c:	b021      	st.w      	r1, (r0, 0x4)
	BTx->PSCR = PSCR_DATA;
    267e:	b042      	st.w      	r2, (r0, 0x8)
}
    2680:	1483      	pop      	r4-r6

Disassembly of section .text.BT_ControlSet_Configure:

00002682 <BT_ControlSet_Configure>:
//EntryParameter:
//ReturnValue:NONE
/*************************************************************/
void BT_ControlSet_Configure(CSP_BT_T *BTx,BT_STARTST_TypeDef BTSTART,BT_IDLEST_TypeDef BTIDLE,BT_SYNCEN_TypeDef BTSYNC,BT_SYNCMD_TypeDef BTSYNCMD,
							BT_OSTMDX_TypeDef BTOSTMD,BT_AREARM_TypeDef BTAREARM,BT_CNTRLD_TypeDef BTCNTRLD)
{
    2682:	14c4      	push      	r4-r7
    2684:	1421      	subi      	r14, r14, 4
    2686:	9885      	ld.w      	r4, (r14, 0x14)
    2688:	6dd3      	mov      	r7, r4
    268a:	9886      	ld.w      	r4, (r14, 0x18)
    268c:	b880      	st.w      	r4, (r14, 0x0)
    268e:	9887      	ld.w      	r4, (r14, 0x1c)
    2690:	6d93      	mov      	r6, r4
    2692:	98a8      	ld.w      	r5, (r14, 0x20)
	BTx->CR |=BTSTART| BTIDLE| BTSYNC| BTSYNCMD| BTOSTMD| BTAREARM| BTCNTRLD;
    2694:	6d58      	or      	r5, r6
    2696:	98c0      	ld.w      	r6, (r14, 0x0)
    2698:	6d58      	or      	r5, r6
    269a:	6d5c      	or      	r5, r7
    269c:	6cd4      	or      	r3, r5
    269e:	6c8c      	or      	r2, r3
    26a0:	9081      	ld.w      	r4, (r0, 0x4)
    26a2:	6c48      	or      	r1, r2
    26a4:	6d04      	or      	r4, r1
    26a6:	6d9f      	mov      	r6, r7
    26a8:	b081      	st.w      	r4, (r0, 0x4)
}
    26aa:	1401      	addi      	r14, r14, 4
    26ac:	1484      	pop      	r4-r7

Disassembly of section .text.BT_Period_CMP_Write:

000026ae <BT_Period_CMP_Write>:
//ReturnValue:NONE
/*************************************************************/
void BT_Period_CMP_Write(CSP_BT_T *BTx,U16_T BTPRDR_DATA,U16_T BTCMP_DATA)
{
	//BTx->CR|=0X01<<2;
	BTx->PRDR =BTPRDR_DATA;
    26ae:	b023      	st.w      	r1, (r0, 0xc)
	BTx->CMP =BTCMP_DATA;
    26b0:	b044      	st.w      	r2, (r0, 0x10)
}
    26b2:	783c      	jmp      	r15

Disassembly of section .text.BT_ConfigInterrupt_CMD:

000026b4 <BT_ConfigInterrupt_CMD>:
//NewState:ENABLE,DISABLE
//ReturnValue:NONE
/*************************************************************/ 
void BT_ConfigInterrupt_CMD(CSP_BT_T *BTx,FunctionalStatus NewState,BT_IMSCR_TypeDef BT_IMSCR_X)
{
	if (NewState != DISABLE)
    26b4:	3940      	cmpnei      	r1, 0
	{
		BTx->IMCR  |= BT_IMSCR_X;						
    26b6:	906b      	ld.w      	r3, (r0, 0x2c)
	if (NewState != DISABLE)
    26b8:	0c04      	bf      	0x26c0	// 26c0 <BT_ConfigInterrupt_CMD+0xc>
		BTx->IMCR  |= BT_IMSCR_X;						
    26ba:	6c8c      	or      	r2, r3
    26bc:	b04b      	st.w      	r2, (r0, 0x2c)
	}
	else
	{
		BTx->IMCR  &= ~BT_IMSCR_X;					
	}
}
    26be:	783c      	jmp      	r15
		BTx->IMCR  &= ~BT_IMSCR_X;					
    26c0:	68c9      	andn      	r3, r2
    26c2:	b06b      	st.w      	r3, (r0, 0x2c)
}
    26c4:	07fd      	br      	0x26be	// 26be <BT_ConfigInterrupt_CMD+0xa>

Disassembly of section .text.BT0_INT_ENABLE:

000026c8 <BT0_INT_ENABLE>:
//EntryParameter:NONE
//ReturnValue:NONE
/*************************************************************/
void BT0_INT_ENABLE(void)
{
	INTC_ISER_WRITE(BT0_INT);
    26c8:	3380      	movi      	r3, 128
    26ca:	4375      	lsli      	r3, r3, 21
    26cc:	1042      	lrw      	r2, 0xe000e100	// 26d4 <BT0_INT_ENABLE+0xc>
    26ce:	b260      	st.w      	r3, (r2, 0x0)
}
    26d0:	783c      	jmp      	r15
    26d2:	0000      	bkpt
    26d4:	e000e100 	.long	0xe000e100

Disassembly of section .text.CORET_DeInit:

000026d8 <CORET_DeInit>:
//EntryParameter:NONE
//ReturnValue:NONE
/*************************************************************/    
void CORET_DeInit(void)
{
	CK801->CORET_CSR=CORET_CSR_RST;
    26d8:	1065      	lrw      	r3, 0x20000064	// 26ec <CORET_DeInit+0x14>
    26da:	3204      	movi      	r2, 4
    26dc:	9360      	ld.w      	r3, (r3, 0x0)
    26de:	b344      	st.w      	r2, (r3, 0x10)
	CK801->CORET_RVR=CORET_RVR_RST;
    26e0:	3200      	movi      	r2, 0
    26e2:	b345      	st.w      	r2, (r3, 0x14)
	CK801->CORET_CVR=CORET_CVR_RST;
    26e4:	b346      	st.w      	r2, (r3, 0x18)
	CK801->CORET_CALIB=CORET_CALIB_RST;
    26e6:	b347      	st.w      	r2, (r3, 0x1c)
}
    26e8:	783c      	jmp      	r15
    26ea:	0000      	bkpt
    26ec:	20000064 	.long	0x20000064

Disassembly of section .text.CORET_Int_Enable:

000026f0 <CORET_Int_Enable>:
//EntryParameter:NONE
//ReturnValue:NONE
/*************************************************************/
void CORET_Int_Enable(void)
{
    CK801->CORET_CVR = 0x0;							// Clear counter and flag
    26f0:	1064      	lrw      	r3, 0x20000064	// 2700 <CORET_Int_Enable+0x10>
    26f2:	3200      	movi      	r2, 0
    26f4:	9360      	ld.w      	r3, (r3, 0x0)
    26f6:	b346      	st.w      	r2, (r3, 0x18)
	INTC_ISER_WRITE(CORET_INT);    
    26f8:	3201      	movi      	r2, 1
    26fa:	1063      	lrw      	r3, 0xe000e100	// 2704 <CORET_Int_Enable+0x14>
    26fc:	b340      	st.w      	r2, (r3, 0x0)
}
    26fe:	783c      	jmp      	r15
    2700:	20000064 	.long	0x20000064
    2704:	e000e100 	.long	0xe000e100

Disassembly of section .text.CORET_start:

00002708 <CORET_start>:
//EntryParameter:NONE
//ReturnValue:NONE
/*************************************************************/
void CORET_start(void)
{
	CK801->CORET_CSR|=0x01;
    2708:	1063      	lrw      	r3, 0x20000064	// 2714 <CORET_start+0xc>
    270a:	9340      	ld.w      	r2, (r3, 0x0)
    270c:	9264      	ld.w      	r3, (r2, 0x10)
    270e:	3ba0      	bseti      	r3, 0
    2710:	b264      	st.w      	r3, (r2, 0x10)
}
    2712:	783c      	jmp      	r15
    2714:	20000064 	.long	0x20000064

Disassembly of section .text.CORET_CLKSOURCE_EX:

00002718 <CORET_CLKSOURCE_EX>:
//EntryParameter:NONE
//ReturnValue:NONE
/*************************************************************/
void CORET_CLKSOURCE_EX(void)
{
	CK801->CORET_CSR&=0Xfffffffb;
    2718:	1063      	lrw      	r3, 0x20000064	// 2724 <CORET_CLKSOURCE_EX+0xc>
    271a:	9340      	ld.w      	r2, (r3, 0x0)
    271c:	9264      	ld.w      	r3, (r2, 0x10)
    271e:	3b82      	bclri      	r3, 2
    2720:	b264      	st.w      	r3, (r2, 0x10)
}
    2722:	783c      	jmp      	r15
    2724:	20000064 	.long	0x20000064

Disassembly of section .text.CORET_TICKINT_Enable:

00002728 <CORET_TICKINT_Enable>:
//EntryParameter:NONE
//ReturnValue:NONE
/*************************************************************/
void CORET_TICKINT_Enable(void)
{
    CK801->CORET_CSR|=0x02;
    2728:	1063      	lrw      	r3, 0x20000064	// 2734 <CORET_TICKINT_Enable+0xc>
    272a:	9340      	ld.w      	r2, (r3, 0x0)
    272c:	9264      	ld.w      	r3, (r2, 0x10)
    272e:	3ba1      	bseti      	r3, 1
    2730:	b264      	st.w      	r3, (r2, 0x10)
}
    2732:	783c      	jmp      	r15
    2734:	20000064 	.long	0x20000064

Disassembly of section .text.CORET_reload:

00002738 <CORET_reload>:
//EntryParameter:NONE
//ReturnValue:NONE
/*************************************************************/
void CORET_reload(void)
{
	CK801->CORET_CVR = 0x0;							// Clear counter and flag
    2738:	1063      	lrw      	r3, 0x20000064	// 2744 <CORET_reload+0xc>
    273a:	3200      	movi      	r2, 0
    273c:	9360      	ld.w      	r3, (r3, 0x0)
    273e:	b346      	st.w      	r2, (r3, 0x18)
}
    2740:	783c      	jmp      	r15
    2742:	0000      	bkpt
    2744:	20000064 	.long	0x20000064

Disassembly of section .text.GPIO_Init:

00002748 <GPIO_Init>:
//byte:Lowbyte(PIN_0~7),Highbyte(PIN_8~15)
//Dir:0:output 1:input
//ReturnValue:NONE
/*************************************************************/  
void GPIO_Init(CSP_GPIO_T *GPIOx,uint8_t PinNum,GPIO_Dir_TypeDef Dir)
{
    2748:	14d1      	push      	r4, r15
    uint32_t data_temp;
    uint8_t GPIO_Pin;
    if(PinNum<8)
    274a:	3907      	cmphsi      	r1, 8
{
    274c:	6d03      	mov      	r4, r0
    if(PinNum<8)
    274e:	0830      	bt      	0x27ae	// 27ae <GPIO_Init+0x66>
    {
    switch (PinNum)
    2750:	5903      	subi      	r0, r1, 1
    2752:	3806      	cmphsi      	r0, 7
    2754:	0827      	bt      	0x27a2	// 27a2 <GPIO_Init+0x5a>
    2756:	e3fff2d3 	bsr      	0xcfc	// cfc <___gnu_csky_case_uqi>
    275a:	1004      	.short	0x1004
    275c:	1d1a1613 	.long	0x1d1a1613
    2760:	0021      	.short	0x0021
    {
        case 0:data_temp=0xfffffff0;GPIO_Pin=0;break;
        case 1:data_temp=0xffffff0f;GPIO_Pin=4;break;
    2762:	3300      	movi      	r3, 0
    2764:	3104      	movi      	r1, 4
    2766:	2bf0      	subi      	r3, 241
        case 4:data_temp=0xfff0ffff;GPIO_Pin=16;break;
        case 5:data_temp=0xff0fffff;GPIO_Pin=20;break;
        case 6:data_temp=0xf0ffffff;GPIO_Pin=24;break;
        case 7:data_temp=0x0fffffff;GPIO_Pin=28;break;
    }
        if (Dir)
    2768:	3a40      	cmpnei      	r2, 0
        {
          (GPIOx)->CONLR =((GPIOx)->CONLR & data_temp) | 1<<GPIO_Pin;
    276a:	9440      	ld.w      	r2, (r4, 0x0)
    276c:	68c8      	and      	r3, r2
        if (Dir)
    276e:	0c1e      	bf      	0x27aa	// 27aa <GPIO_Init+0x62>
          (GPIOx)->CONLR =((GPIOx)->CONLR & data_temp) | 1<<GPIO_Pin;
    2770:	3201      	movi      	r2, 1
        }
        else
        {
         (GPIOx)->CONLR = ((GPIOx)->CONLR & data_temp) | 2<<GPIO_Pin; 
    2772:	7084      	lsl      	r2, r1
    2774:	6cc8      	or      	r3, r2
    2776:	b460      	st.w      	r3, (r4, 0x0)
        else
        {
         (GPIOx)->CONHR = ((GPIOx)->CONHR & data_temp) | 2<<GPIO_Pin;    
        }
    }
}
    2778:	1491      	pop      	r4, r15
        case 2:data_temp=0xfffff0ff;GPIO_Pin=8;break;
    277a:	3108      	movi      	r1, 8
    277c:	1166      	lrw      	r3, 0xfffff0ff	// 2814 <GPIO_Init+0xcc>
    277e:	07f5      	br      	0x2768	// 2768 <GPIO_Init+0x20>
        case 3:data_temp=0xffff0fff;GPIO_Pin=12;break;
    2780:	310c      	movi      	r1, 12
    2782:	1166      	lrw      	r3, 0xffff0fff	// 2818 <GPIO_Init+0xd0>
    2784:	07f2      	br      	0x2768	// 2768 <GPIO_Init+0x20>
        case 4:data_temp=0xfff0ffff;GPIO_Pin=16;break;
    2786:	3110      	movi      	r1, 16
    2788:	1165      	lrw      	r3, 0xfff10000	// 281c <GPIO_Init+0xd4>
        case 6:data_temp=0xf0ffffff;GPIO_Pin=24;break;
    278a:	2b00      	subi      	r3, 1
    278c:	07ee      	br      	0x2768	// 2768 <GPIO_Init+0x20>
        case 5:data_temp=0xff0fffff;GPIO_Pin=20;break;
    278e:	3114      	movi      	r1, 20
    2790:	1164      	lrw      	r3, 0xff100000	// 2820 <GPIO_Init+0xd8>
    2792:	07fc      	br      	0x278a	// 278a <GPIO_Init+0x42>
        case 6:data_temp=0xf0ffffff;GPIO_Pin=24;break;
    2794:	33f1      	movi      	r3, 241
    2796:	3118      	movi      	r1, 24
    2798:	4378      	lsli      	r3, r3, 24
    279a:	07f8      	br      	0x278a	// 278a <GPIO_Init+0x42>
        case 7:data_temp=0x0fffffff;GPIO_Pin=28;break;
    279c:	311c      	movi      	r1, 28
    279e:	1162      	lrw      	r3, 0xfffffff	// 2824 <GPIO_Init+0xdc>
    27a0:	07e4      	br      	0x2768	// 2768 <GPIO_Init+0x20>
        case 0:data_temp=0xfffffff0;GPIO_Pin=0;break;
    27a2:	3300      	movi      	r3, 0
    27a4:	3100      	movi      	r1, 0
    27a6:	2b0f      	subi      	r3, 16
    27a8:	07e0      	br      	0x2768	// 2768 <GPIO_Init+0x20>
         (GPIOx)->CONLR = ((GPIOx)->CONLR & data_temp) | 2<<GPIO_Pin; 
    27aa:	3202      	movi      	r2, 2
    27ac:	07e3      	br      	0x2772	// 2772 <GPIO_Init+0x2a>
    else if (PinNum<16)
    27ae:	390f      	cmphsi      	r1, 16
    27b0:	0be4      	bt      	0x2778	// 2778 <GPIO_Init+0x30>
        switch (PinNum)
    27b2:	2908      	subi      	r1, 9
    27b4:	3906      	cmphsi      	r1, 7
    27b6:	6c07      	mov      	r0, r1
    27b8:	0827      	bt      	0x2806	// 2806 <GPIO_Init+0xbe>
    27ba:	e3fff2a1 	bsr      	0xcfc	// cfc <___gnu_csky_case_uqi>
    27be:	1004      	.short	0x1004
    27c0:	1d1a1613 	.long	0x1d1a1613
    27c4:	0021      	.short	0x0021
        case 9:data_temp=0xffffff0f;GPIO_Pin=4;break;
    27c6:	3300      	movi      	r3, 0
    27c8:	3104      	movi      	r1, 4
    27ca:	2bf0      	subi      	r3, 241
      if (Dir)
    27cc:	3a40      	cmpnei      	r2, 0
        (GPIOx)->CONHR = ((GPIOx)->CONHR & data_temp) | 1<<GPIO_Pin;  
    27ce:	9441      	ld.w      	r2, (r4, 0x4)
    27d0:	68c8      	and      	r3, r2
      if (Dir)
    27d2:	0c1e      	bf      	0x280e	// 280e <GPIO_Init+0xc6>
        (GPIOx)->CONHR = ((GPIOx)->CONHR & data_temp) | 1<<GPIO_Pin;  
    27d4:	3201      	movi      	r2, 1
         (GPIOx)->CONHR = ((GPIOx)->CONHR & data_temp) | 2<<GPIO_Pin;    
    27d6:	7084      	lsl      	r2, r1
    27d8:	6cc8      	or      	r3, r2
    27da:	b461      	st.w      	r3, (r4, 0x4)
}
    27dc:	07ce      	br      	0x2778	// 2778 <GPIO_Init+0x30>
        case 10:data_temp=0xfffff0ff;GPIO_Pin=8;break;
    27de:	3108      	movi      	r1, 8
    27e0:	106d      	lrw      	r3, 0xfffff0ff	// 2814 <GPIO_Init+0xcc>
    27e2:	07f5      	br      	0x27cc	// 27cc <GPIO_Init+0x84>
        case 11:data_temp=0xffff0fff;GPIO_Pin=12;break;
    27e4:	310c      	movi      	r1, 12
    27e6:	106d      	lrw      	r3, 0xffff0fff	// 2818 <GPIO_Init+0xd0>
    27e8:	07f2      	br      	0x27cc	// 27cc <GPIO_Init+0x84>
        case 12:data_temp=0xfff0ffff;GPIO_Pin=16;break;
    27ea:	3110      	movi      	r1, 16
    27ec:	106c      	lrw      	r3, 0xfff10000	// 281c <GPIO_Init+0xd4>
        case 14:data_temp=0xf0ffffff;GPIO_Pin=24;break;
    27ee:	2b00      	subi      	r3, 1
    27f0:	07ee      	br      	0x27cc	// 27cc <GPIO_Init+0x84>
        case 13:data_temp=0xff0fffff;GPIO_Pin=20;break;
    27f2:	3114      	movi      	r1, 20
    27f4:	106b      	lrw      	r3, 0xff100000	// 2820 <GPIO_Init+0xd8>
    27f6:	07fc      	br      	0x27ee	// 27ee <GPIO_Init+0xa6>
        case 14:data_temp=0xf0ffffff;GPIO_Pin=24;break;
    27f8:	33f1      	movi      	r3, 241
    27fa:	3118      	movi      	r1, 24
    27fc:	4378      	lsli      	r3, r3, 24
    27fe:	07f8      	br      	0x27ee	// 27ee <GPIO_Init+0xa6>
        case 15:data_temp=0x0fffffff;GPIO_Pin=28;break;
    2800:	311c      	movi      	r1, 28
    2802:	1069      	lrw      	r3, 0xfffffff	// 2824 <GPIO_Init+0xdc>
    2804:	07e4      	br      	0x27cc	// 27cc <GPIO_Init+0x84>
        case 8:data_temp=0xfffffff0;GPIO_Pin=0;break;
    2806:	3300      	movi      	r3, 0
    2808:	3100      	movi      	r1, 0
    280a:	2b0f      	subi      	r3, 16
    280c:	07e0      	br      	0x27cc	// 27cc <GPIO_Init+0x84>
         (GPIOx)->CONHR = ((GPIOx)->CONHR & data_temp) | 2<<GPIO_Pin;    
    280e:	3202      	movi      	r2, 2
    2810:	07e3      	br      	0x27d6	// 27d6 <GPIO_Init+0x8e>
    2812:	0000      	bkpt
    2814:	fffff0ff 	.long	0xfffff0ff
    2818:	ffff0fff 	.long	0xffff0fff
    281c:	fff10000 	.long	0xfff10000
    2820:	ff100000 	.long	0xff100000
    2824:	0fffffff 	.long	0x0fffffff

Disassembly of section .text.GPIO_Write_High:

00002828 <GPIO_Write_High>:
//bit:0~15
//ReturnValue:VALUE
/*************************************************************/
void GPIO_Write_High(CSP_GPIO_T *GPIOx,uint8_t bit)
{
        (GPIOx)->SODR = (1ul<<bit);
    2828:	3301      	movi      	r3, 1
    282a:	70c4      	lsl      	r3, r1
    282c:	b063      	st.w      	r3, (r0, 0xc)
}
    282e:	783c      	jmp      	r15

Disassembly of section .text.GPIO_Write_Low:

00002830 <GPIO_Write_Low>:
void GPIO_Write_Low(CSP_GPIO_T *GPIOx,uint8_t bit)
{
        (GPIOx)->CODR = (1ul<<bit);
    2830:	3301      	movi      	r3, 1
    2832:	70c4      	lsl      	r3, r1
    2834:	b064      	st.w      	r3, (r0, 0x10)
}
    2836:	783c      	jmp      	r15

Disassembly of section .text.Page_ProgramData:

00002838 <Page_ProgramData>:
		IFC->CR=0X01;					//Start Program
	}
}
//Normal mode, when the call is completed once, it will delay 4.2ms in the program
void Page_ProgramData(unsigned int FlashAdd,unsigned int DataSize,volatile unsigned char *BufArry)
{
    2838:	14c4      	push      	r4-r7
    283a:	1422      	subi      	r14, r14, 8
	int i,DataBuffer;

	//Page cache wipe 1
	SetUserKey;
    283c:	1165      	lrw      	r3, 0x20000060	// 28d0 <Page_ProgramData+0x98>
    283e:	1186      	lrw      	r4, 0x5a5a5a5a	// 28d4 <Page_ProgramData+0x9c>
    2840:	9360      	ld.w      	r3, (r3, 0x0)
    2842:	b388      	st.w      	r4, (r3, 0x20)
	IFC->CMR=0x07;					
    2844:	3407      	movi      	r4, 7
    2846:	b383      	st.w      	r4, (r3, 0xc)
	IFC->FM_ADDR=FlashAdd;
	IFC->CR=0X01;					//Start Program
    2848:	3401      	movi      	r4, 1
	IFC->FM_ADDR=FlashAdd;
    284a:	b306      	st.w      	r0, (r3, 0x18)
	IFC->CR=0X01;					//Start Program
    284c:	b384      	st.w      	r4, (r3, 0x10)
	while(IFC->CR!=0x0);			//Wait for the operation to complete
    284e:	9384      	ld.w      	r4, (r3, 0x10)
    2850:	3c40      	cmpnei      	r4, 0
    2852:	0bfe      	bt      	0x284e	// 284e <Page_ProgramData+0x16>
	//Write data to the cache 2
	for(i=0;i<((DataSize+3)/4);i++)   //sizeof structure
    2854:	2102      	addi      	r1, 3
    2856:	4922      	lsri      	r1, r1, 2
    2858:	4122      	lsli      	r1, r1, 2
    285a:	6048      	addu      	r1, r2
    285c:	b820      	st.w      	r1, (r14, 0x0)
    285e:	5829      	subu      	r1, r0, r2
    2860:	b821      	st.w      	r1, (r14, 0x4)
    2862:	9820      	ld.w      	r1, (r14, 0x0)
    2864:	644a      	cmpne      	r2, r1
    2866:	0826      	bt      	0x28b2	// 28b2 <Page_ProgramData+0x7a>
		*(volatile unsigned int *)(FlashAdd+4*i)=DataBuffer;
		BufArry  +=4;
	}
	//Pre-programmed operation settings 3
	SetUserKey;
	IFC->CMR=0x06;					
    2868:	3106      	movi      	r1, 6
	SetUserKey;
    286a:	105b      	lrw      	r2, 0x5a5a5a5a	// 28d4 <Page_ProgramData+0x9c>
    286c:	b348      	st.w      	r2, (r3, 0x20)
	IFC->CMR=0x06;					
    286e:	b323      	st.w      	r1, (r3, 0xc)
	IFC->FM_ADDR=FlashAdd;
	IFC->CR=0X01;					//Start Program
    2870:	3101      	movi      	r1, 1
	IFC->FM_ADDR=FlashAdd;
    2872:	b306      	st.w      	r0, (r3, 0x18)
	IFC->CR=0X01;					//Start Program
    2874:	b324      	st.w      	r1, (r3, 0x10)
	while(IFC->CR!=0x0);			//Wait for the operation to complete
    2876:	9324      	ld.w      	r1, (r3, 0x10)
    2878:	3940      	cmpnei      	r1, 0
    287a:	0bfe      	bt      	0x2876	// 2876 <Page_ProgramData+0x3e>
	//Perform pre-programming 4
	SetUserKey;
    287c:	b348      	st.w      	r2, (r3, 0x20)
	IFC->CMR=0x01;					
    287e:	3201      	movi      	r2, 1
    2880:	b343      	st.w      	r2, (r3, 0xc)
	IFC->FM_ADDR=FlashAdd;			//
    2882:	b306      	st.w      	r0, (r3, 0x18)
	IFC->CR=0X01;					//Start Program
    2884:	b344      	st.w      	r2, (r3, 0x10)
	while(IFC->RISR!=PEP_END_INT);			//Wait for the operation to complete
    2886:	934a      	ld.w      	r2, (r3, 0x28)
    2888:	3a44      	cmpnei      	r2, 4
    288a:	0bfe      	bt      	0x2886	// 2886 <Page_ProgramData+0x4e>
	//Page erase 5
	SetUserKey;
	IFC->CMR=0x02;					
    288c:	3102      	movi      	r1, 2
	SetUserKey;
    288e:	1052      	lrw      	r2, 0x5a5a5a5a	// 28d4 <Page_ProgramData+0x9c>
    2890:	b348      	st.w      	r2, (r3, 0x20)
	IFC->CMR=0x02;					
    2892:	b323      	st.w      	r1, (r3, 0xc)
	IFC->FM_ADDR=FlashAdd;			//
	IFC->CR=0X01;					//Start Program
    2894:	3101      	movi      	r1, 1
	IFC->FM_ADDR=FlashAdd;			//
    2896:	b306      	st.w      	r0, (r3, 0x18)
	IFC->CR=0X01;					//Start Program
    2898:	b324      	st.w      	r1, (r3, 0x10)
	while(IFC->RISR!=ERS_END_INT);			//Wait for the operation to complete
    289a:	932a      	ld.w      	r1, (r3, 0x28)
    289c:	3941      	cmpnei      	r1, 1
    289e:	0bfe      	bt      	0x289a	// 289a <Page_ProgramData+0x62>
	//Write page cache data to flash memory 6
	SetUserKey;
    28a0:	b348      	st.w      	r2, (r3, 0x20)
	IFC->CMR=0x01;					
    28a2:	b323      	st.w      	r1, (r3, 0xc)
	IFC->FM_ADDR=FlashAdd;		//
    28a4:	b306      	st.w      	r0, (r3, 0x18)
	IFC->CR=0X01;					//Start Program
    28a6:	b324      	st.w      	r1, (r3, 0x10)
	while(IFC->RISR!=RGM_END_INT);			//Wait for the operation to complete
    28a8:	934a      	ld.w      	r2, (r3, 0x28)
    28aa:	3a42      	cmpnei      	r2, 2
    28ac:	0bfe      	bt      	0x28a8	// 28a8 <Page_ProgramData+0x70>
}
    28ae:	1402      	addi      	r14, r14, 8
    28b0:	1484      	pop      	r4-r7
		DataBuffer=*BufArry+(*(BufArry+1)<<8)+(*(BufArry+2)<<16)+(*(BufArry+3)<<24);
    28b2:	82e0      	ld.b      	r7, (r2, 0x0)
    28b4:	8281      	ld.b      	r4, (r2, 0x1)
    28b6:	4488      	lsli      	r4, r4, 8
    28b8:	8222      	ld.b      	r1, (r2, 0x2)
    28ba:	611c      	addu      	r4, r7
    28bc:	82a3      	ld.b      	r5, (r2, 0x3)
    28be:	4130      	lsli      	r1, r1, 16
    28c0:	98c1      	ld.w      	r6, (r14, 0x4)
    28c2:	6050      	addu      	r1, r4
    28c4:	45b8      	lsli      	r5, r5, 24
    28c6:	6188      	addu      	r6, r2
    28c8:	6054      	addu      	r1, r5
		*(volatile unsigned int *)(FlashAdd+4*i)=DataBuffer;
    28ca:	b620      	st.w      	r1, (r6, 0x0)
		BufArry  +=4;
    28cc:	2203      	addi      	r2, 4
    28ce:	07ca      	br      	0x2862	// 2862 <Page_ProgramData+0x2a>
    28d0:	20000060 	.long	0x20000060
    28d4:	5a5a5a5a 	.long	0x5a5a5a5a

Disassembly of section .text.ReadDataArry:

000028d8 <ReadDataArry>:
// DataLength must be a multiple of 4, DataLength % 4 ==0.
//EntryParameter:RdStartAddDataLength*DataArryPoint
//ReturnValue:NONE
*************************************************************/
void ReadDataArry(unsigned int RdStartAdd,unsigned int DataLength,volatile unsigned char *DataArryPoint)
{
    28d8:	14c1      	push      	r4
	unsigned int i,Buffer;
	//delay_nms(1);
	for(i=0;i<((DataLength+3)/4);i++)
    28da:	2102      	addi      	r1, 3
    28dc:	4922      	lsri      	r1, r1, 2
    28de:	4122      	lsli      	r1, r1, 2
    28e0:	6048      	addu      	r1, r2
    28e2:	600a      	subu      	r0, r2
    28e4:	644a      	cmpne      	r2, r1
    28e6:	0802      	bt      	0x28ea	// 28ea <ReadDataArry+0x12>
		*(DataArryPoint+2)=Buffer>>16;
		*(DataArryPoint+3)=Buffer>>24;
		RdStartAdd +=4;
		DataArryPoint +=4;
	}
}
    28e8:	1481      	pop      	r4
    28ea:	5a60      	addu      	r3, r2, r0
		Buffer=*(volatile unsigned int *)RdStartAdd;
    28ec:	9360      	ld.w      	r3, (r3, 0x0)
		*DataArryPoint=Buffer;
    28ee:	750c      	zextb      	r4, r3
    28f0:	a280      	st.b      	r4, (r2, 0x0)
		*(DataArryPoint+1)=Buffer>>8;
    28f2:	4b88      	lsri      	r4, r3, 8
    28f4:	7510      	zextb      	r4, r4
    28f6:	a281      	st.b      	r4, (r2, 0x1)
		*(DataArryPoint+2)=Buffer>>16;
    28f8:	4b90      	lsri      	r4, r3, 16
    28fa:	7510      	zextb      	r4, r4
		*(DataArryPoint+3)=Buffer>>24;
    28fc:	4b78      	lsri      	r3, r3, 24
		*(DataArryPoint+2)=Buffer>>16;
    28fe:	a282      	st.b      	r4, (r2, 0x2)
		*(DataArryPoint+3)=Buffer>>24;
    2900:	a263      	st.b      	r3, (r2, 0x3)
		DataArryPoint +=4;
    2902:	2203      	addi      	r2, 4
    2904:	07f0      	br      	0x28e4	// 28e4 <ReadDataArry+0xc>

Disassembly of section .text.LPT_Soft_Reset:

00002908 <LPT_Soft_Reset>:
//EntryParameter:NONE
//ReturnValue:NONE
/*************************************************************/ 
void LPT_Soft_Reset(void)
{
	LPT->RSSR |= (0X5<<12);
    2908:	1064      	lrw      	r3, 0x20000014	// 2918 <LPT_Soft_Reset+0x10>
    290a:	9340      	ld.w      	r2, (r3, 0x0)
    290c:	9261      	ld.w      	r3, (r2, 0x4)
    290e:	3bac      	bseti      	r3, 12
    2910:	3bae      	bseti      	r3, 14
    2912:	b261      	st.w      	r3, (r2, 0x4)
}
    2914:	783c      	jmp      	r15
    2916:	0000      	bkpt
    2918:	20000014 	.long	0x20000014

Disassembly of section .text.SPI_DeInit:

0000291c <SPI_DeInit>:
//EntryParameter:NONE
//ReturnValue:NONE
/*************************************************************/
void SPI_DeInit(void)
{
    SPI0->CR0   	= SPI_CR0_RST;
    291c:	1067      	lrw      	r3, 0x20000034	// 2938 <SPI_DeInit+0x1c>
    291e:	3200      	movi      	r2, 0
    2920:	9360      	ld.w      	r3, (r3, 0x0)
    SPI0->CR1   	= SPI_CR1_RST;
    //SPI0->DR   	 	= SPI_DR_RST;
    SPI0->SR   	 	= SPI_SR_RST;
    2922:	3103      	movi      	r1, 3
    SPI0->CR0   	= SPI_CR0_RST;
    2924:	b340      	st.w      	r2, (r3, 0x0)
    SPI0->CR1   	= SPI_CR1_RST;
    2926:	b341      	st.w      	r2, (r3, 0x4)
    SPI0->SR   	 	= SPI_SR_RST;
    2928:	b323      	st.w      	r1, (r3, 0xc)
    SPI0->CPSR   	= SPI_CPSR_RST;
    SPI0->IMSCR   	= SPI_IMSCR_RST;
    SPI0->RISR   	= SPI_RISR_RST;
    292a:	3108      	movi      	r1, 8
    SPI0->CPSR   	= SPI_CPSR_RST;
    292c:	b344      	st.w      	r2, (r3, 0x10)
    SPI0->IMSCR   	= SPI_IMSCR_RST;
    292e:	b345      	st.w      	r2, (r3, 0x14)
    SPI0->RISR   	= SPI_RISR_RST;
    2930:	b326      	st.w      	r1, (r3, 0x18)
    SPI0->MISR   	= SPI_MISR_RST;
    2932:	b347      	st.w      	r2, (r3, 0x1c)
    SPI0->ICR	 	= SPI_ICR_RST;
    2934:	b348      	st.w      	r2, (r3, 0x20)
}
    2936:	783c      	jmp      	r15
    2938:	20000034 	.long	0x20000034

Disassembly of section .text.SPI_NSS_IO_Init:

0000293c <SPI_NSS_IO_Init>:
//SPI NSS IO Initial
//ReturnValue:NONE
/*************************************************************/
void SPI_NSS_IO_Init(U8_T SPI_NSS_IO_GROUP)
{
	if(SPI_NSS_IO_GROUP==0)
    293c:	3840      	cmpnei      	r0, 0
    293e:	080b      	bt      	0x2954	// 2954 <SPI_NSS_IO_Init+0x18>
	{
		GPIOA0->CONLR = (GPIOA0->CONLR&0XF0FFFFFF)  | 0x05000000;				//PA0.6
    2940:	106a      	lrw      	r3, 0x2000004c	// 2968 <SPI_NSS_IO_Init+0x2c>
    2942:	32f0      	movi      	r2, 240
    2944:	9320      	ld.w      	r1, (r3, 0x0)
    2946:	9160      	ld.w      	r3, (r1, 0x0)
    2948:	4254      	lsli      	r2, r2, 20
    294a:	68c9      	andn      	r3, r2
    294c:	3bb8      	bseti      	r3, 24
    294e:	3bba      	bseti      	r3, 26
	}
	else if(SPI_NSS_IO_GROUP==1)
	{
		GPIOB0->CONLR = (GPIOB0->CONLR&0XFF0FFFFF)  | 0x00800000;				//PB0.5
    2950:	b160      	st.w      	r3, (r1, 0x0)
	}
}
    2952:	783c      	jmp      	r15
	else if(SPI_NSS_IO_GROUP==1)
    2954:	3841      	cmpnei      	r0, 1
    2956:	0bfe      	bt      	0x2952	// 2952 <SPI_NSS_IO_Init+0x16>
		GPIOB0->CONLR = (GPIOB0->CONLR&0XFF0FFFFF)  | 0x00800000;				//PB0.5
    2958:	1065      	lrw      	r3, 0x20000048	// 296c <SPI_NSS_IO_Init+0x30>
    295a:	32f0      	movi      	r2, 240
    295c:	9320      	ld.w      	r1, (r3, 0x0)
    295e:	9160      	ld.w      	r3, (r1, 0x0)
    2960:	4250      	lsli      	r2, r2, 16
    2962:	68c9      	andn      	r3, r2
    2964:	3bb7      	bseti      	r3, 23
    2966:	07f5      	br      	0x2950	// 2950 <SPI_NSS_IO_Init+0x14>
    2968:	2000004c 	.long	0x2000004c
    296c:	20000048 	.long	0x20000048

Disassembly of section .text.SPI_Master_Init:

00002970 <SPI_Master_Init>:
//ReturnValue:NONE
/*************************************************************/
//SPI Baud rate:FSSPCLK = FPCLK / (CPSDVR  (1 + SCR))
//FPCLK (max)  2  FSSPCLKOUT (max) master	Fastest speed
void SPI_Master_Init(SPI_IO_TypeDef SPI_IO , SPI_DATA_SIZE_TypeDef SPI_DATA_SIZE_x , SPI_SPO_TypeDef SPI_SPO_X , SPI_SPH_TypeDef SPI_SPH_X , SPI_LBM_TypeDef SPI_LBM_X , SPI_RXIFLSEL_TypeDef SPI_RXIFLSEL_X , U8_T SPI_SCR , U8_T SPI_CPSDVSR )
{
    2970:	14c4      	push      	r4-r7
    2972:	1422      	subi      	r14, r14, 8
    2974:	9886      	ld.w      	r4, (r14, 0x18)
    2976:	b880      	st.w      	r4, (r14, 0x0)
    2978:	9887      	ld.w      	r4, (r14, 0x1c)
    297a:	b881      	st.w      	r4, (r14, 0x4)
    297c:	1d09      	addi      	r5, r14, 36
    297e:	1c08      	addi      	r4, r14, 32
	if (SPI_IO==SPI_G0)
    2980:	3840      	cmpnei      	r0, 0
{
    2982:	8480      	ld.b      	r4, (r4, 0x0)
    2984:	85a0      	ld.b      	r5, (r5, 0x0)
	if (SPI_IO==SPI_G0)
    2986:	0827      	bt      	0x29d4	// 29d4 <SPI_Master_Init+0x64>
    {
		GPIOB0->CONLR = (GPIOB0->CONLR&0XFFFF00FF)  | 0x00008800;
    2988:	1101      	lrw      	r0, 0x20000048	// 2a0c <SPI_Master_Init+0x9c>
    298a:	36ff      	movi      	r6, 255
    298c:	90e0      	ld.w      	r7, (r0, 0x0)
    298e:	9700      	ld.w      	r0, (r7, 0x0)
    2990:	46c8      	lsli      	r6, r6, 8
    2992:	6819      	andn      	r0, r6
    2994:	38ab      	bseti      	r0, 11
